;
; pdp11dasm version 0.0.3
; disassembly of 791401
;
000000: 000002 000000 000006	defw	2,0,6			; ......
000006: 000000 000012 000000	defw	0,12,0			; ......
000014: 000016 000000 017020	defw	16,0,17020		; ......
000022: 000000 000200 000000	defw	0,200,0			; ......
000030: 000032 000000 000036	defw	32,0,36			; ......
000036: 000000 000042 000000	defw	0,42,0			; .."...
000044: 000430 016750 000052	defw	430,16750,52		; ..h.*.
000052: 000000 000056 000000	defw	0,56,0			; ......
000060: 000062 000000 000066	defw	62,0,66			; 2...6.
000066: 000000 000072 000000	defw	0,72,0			; ..:...
000074: 000076 000000 000102	defw	76,0,102		; >...B.
000102: 000000 000106 000000	defw	0,106,0			; ..F...
000110: 000112 000000 000116	defw	112,0,116		; J...N.
000116: 000000 000122 000000	defw	0,122,0			; ..R...
000124: 000126 000000 000132	defw	126,0,132		; V...Z.
000132: 000000 000136 000000	defw	0,136,0			; ..^...
000140: 000142 000000 000146	defw	142,0,146		; b...f.
000146: 000000 000152 000000	defw	0,152,0			; ..j...
000154: 000156 000000 000162	defw	156,0,162		; n...r.
000162: 000000 000166 000000	defw	0,166,0			; ..v...
000170: 000172 000000 000176	defw	172,0,176		; z...~.
000176: 000000              	defw	0			; ..
;
000200: 012737 016770 000024	mov	#16770,@#24		; _.x...
000206: 012700 000420       	mov	#420,r0			; @...
000212: 005040              	clr	-(r0)			;  .
000214: 020027 000400       	cmp	r0,#400			; . ..
000220: 101374              	bhi	212			; |.
000222: 000167 000302       	jmp	530			; w.B.
;
000226: 000000              	halt				; ..
;
000230: 000232              	spl	2			; ..
000232: 000000              	halt				; ..
;
000234: 000236              	spl	6			; ..
000236: 000000              	halt				; ..
;
000240: 000242              	clv				; ".
000242: 000000              	halt				; ..
;
000244: 000246              	invalid opcode			; &.
000246: 000000              	halt				; ..
;
000250: 000252              	invalid opcode			; *.
000252: 000000              	halt				; ..
;
000254: 000256              	invalid opcode			; ..
000256: 000000              	halt				; ..
;
000260: 000262              	sev				; 2.
000262: 000000              	halt				; ..
;
000264: 000266              	invalid opcode			; 6.
000266: 000000              	halt				; ..
;
000270: 000272              	invalid opcode			; :.
000272: 000000              	halt				; ..
;
000274: 000276              	invalid opcode			; >.
000276: 000000              	halt				; ..
;
000300: 000302              	swab	r2			; B.
000302: 000000              	halt				; ..
;
000304: 000306              	swab	r6			; F.
000306: 000000              	halt				; ..
;
000310: 000312              	swab	(r2)			; J.
000312: 000000              	halt				; ..
;
000314: 000316              	swab	(r6)			; N.
000316: 000000              	halt				; ..
;
000320: 000322              	swab	(r2)+			; R.
000322: 000000              	halt				; ..
;
000324: 000326              	swab	(r6)+			; V.
000326: 000000              	halt				; ..
;
000330: 000332              	swab	@(r2)+			; Z.
000332: 000000              	halt				; ..
;
000334: 000336              	swab	@(r6)+			; ^.
000336: 000000              	halt				; ..
;
000340: 000342              	swab	-(r2)			; b.
000342: 000000              	halt				; ..
;
000344: 000346              	swab	-(r6)			; f.
000346: 000000              	halt				; ..
;
000350: 000352              	swab	@-(r2)			; j.
000352: 000000              	halt				; ..
;
000354: 000356              	swab	@-(r6)			; n.
000356: 000000              	halt				; ..
;
000360: 000362 000000       	swab	0(r2)			; r...
000364: 000366 000000       	swab	0(r6)			; v...
000370: 000372 000000       	swab	@0(r2)			; z...
000374: 000376 000000       	swab	@0(r6)			; ~...
000400: 000000              	halt				; ..
000402: 000000              	halt				; ..
000404: 000000              	halt				; ..
000406: 000000              	halt				; ..
000410: 000000              	halt				; ..
000412: 000000              	halt				; ..
000414: 000000              	halt				; ..
000416: 000000              	halt				; ..
000420: 000000              	halt				; ..
000422: 000000              	halt				; ..
000424: 000000              	halt				; ..
000426: 000000              	halt				; ..
000430: 000000              	halt				; ..
;
000432: 000400              	br	434			; ..
;
000434: 000001              	wait				; ..
000436: 000001              	wait				; ..
000440: 000000              	halt				; ..
;
000442: 000014              	invalid opcode			; ..
000444: 000446              	br	562			; &.
;
000446: 177564 177566       	ldcdf	f1,177566(r4)		; t.v.
000452: 006402              	mark	2			; ..
000454: 005015              	clr	(r5)			; ..
000456: 065416              	add	@-(r4),(r6)		; .k
000460: 070040              	mul	-(r0),r0		;  p
000462: 067562 067550 000144	add	@67550(r5),144(r2)	; rohod.
000470: 005015              	clr	(r5)			; ..
000472: 064560 040524       	add	-(r5),40524(r0)		; piTA
000476: 064510              	add	-(r5),(r0)		; Hi
000500: 000105              	jmp	r5			; E.
;
000502: 000000              	halt				; ..
;
000504: 000506              	br	722			; F.
;
000506: 000000              	halt				; ..
;
000510: 000512              	br	736			; J.
;
000512: 000000              	halt				; ..
;
000514: 000516              	br	752			; N.
;
000516: 000000              	halt				; ..
;
000520: 000522              	br	766			; R.
;
000522: 000000              	halt				; ..
;
000524: 000526              	br	1002			; V.
;
000526: 000000              	halt				; ..
;
000530: 012706 000530       	mov	#530,r6			; F.X.
000534: 012705 000404       	mov	#404,r5			; E...
000540: 005715              	tst	(r5)			; M.
000542: 001401              	beq	546			; ..
000544: 000000              	halt				; ..
;
000546: 021527 000000       	cmp	(r5),#0			; W#..
000552: 001017              	bne	612			; ..
000554: 005215              	inc	(r5)			; ..
000556: 000257              	ccc				; /.
000560: 103414              	bcs	612			; ..
000562: 102413              	bvs	612			; ..
000564: 001412              	beq	612			; ..
000566: 100411              	bmi	612			; ..
000570: 000260              	invalid opcode			; 0.
000572: 103407              	bcs	612			; ..
000574: 102406              	bvs	612			; ..
000576: 001405              	beq	612			; ..
000600: 100404              	bmi	612			; ..
000602: 002403              	blt	612			; ..
000604: 003402              	ble	612			; ..
000606: 101401              	blos	612			; ..
000610: 101004              	bhi	622			; ..
000612: 012745 000001       	mov	#1,-(r5)		; e...
000616: 005245              	inc	-(r5)			; %.
000620: 000000              	halt				; ..
;
000622: 102000              	bvc	624			; ..
000624: 021527 000001       	cmp	(r5),#1			; W#..
000630: 001012              	bne	656			; ..
000632: 005215              	inc	(r5)			; ..
000634: 000270              	sen				; 8.
000636: 100007              	bpl	656			; ..
000640: 001406              	beq	656			; ..
000642: 002005              	bge	656			; ..
000644: 003004              	bgt	656			; ..
000646: 103403              	bcs	656			; ..
000650: 101402              	blos	656			; ..
000652: 103401              	bcs	656			; ..
000654: 003404              	ble	666			; ..
000656: 012745 000002       	mov	#2,-(r5)		; e...
000662: 005245              	inc	-(r5)			; %.
000664: 000000              	halt				; ..
;
000666: 001000              	bne	670			; ..
000670: 021527 000002       	cmp	(r5),#2			; W#..
000674: 001014              	bne	726			; ..
000676: 005215              	inc	(r5)			; ..
000700: 000270              	sen				; 8.
000702: 000262              	sev				; 2.
000704: 102010              	bvc	726			; ..
000706: 001407              	beq	726			; ..
000710: 100006              	bpl	726			; ..
000712: 103405              	bcs	726			; ..
000714: 002404              	blt	726			; ..
000716: 003403              	ble	726			; ..
000720: 101402              	blos	726			; ..
000722: 103401              	bcs	726			; ..
000724: 003004              	bgt	736			; ..
000726: 012745 000003       	mov	#3,-(r5)		; e...
000732: 005245              	inc	-(r5)			; %.
000734: 000000              	halt				; ..
;
000736: 002000              	bge	740			; ..
000740: 021527 000003       	cmp	(r5),#3			; W#..
000744: 001013              	bne	774			; ..
000746: 005215              	inc	(r5)			; ..
000750: 000270              	sen				; 8.
000752: 000262              	sev				; 2.
000754: 000261              	sec				; 1.
000756: 001406              	beq	774			; ..
000760: 100005              	bpl	774			; ..
000762: 102004              	bvc	774			; ..
000764: 002403              	blt	774			; ..
000766: 003402              	ble	774			; ..
000770: 101001              	bhi	774			; ..
000772: 002004              	bge	1004			; ..
000774: 012745 000004       	mov	#4,-(r5)		; e...
001000: 005245              	inc	-(r5)			; %.
001002: 000000              	halt				; ..
;
001004: 021527 000004       	cmp	(r5),#4			; W#..
001010: 001015              	bne	1044			; ..
001012: 005215              	inc	(r5)			; ..
001014: 000270              	sen				; 8.
001016: 000262              	sev				; 2.
001020: 000261              	sec				; 1.
001022: 000264              	sez				; 4.
001024: 001007              	bne	1044			; ..
001026: 100006              	bpl	1044			; ..
001030: 102005              	bvc	1044			; ..
001032: 103004              	bcc	1044			; ..
001034: 002403              	blt	1044			; ..
001036: 003002              	bgt	1044			; ..
001040: 101001              	bhi	1044			; ..
001042: 001404              	beq	1054			; ..
001044: 012745 000005       	mov	#5,-(r5)		; e...
001050: 005245              	inc	-(r5)			; %.
001052: 000000              	halt				; ..
;
001054: 021527 000005       	cmp	(r5),#5			; W#..
001060: 001014              	bne	1112			; ..
001062: 005215              	inc	(r5)			; ..
001064: 000277              	scc				; ?.
001066: 100011              	bpl	1112			; ..
001070: 001010              	bne	1112			; ..
001072: 102007              	bvc	1112			; ..
001074: 103006              	bcc	1112			; ..
001076: 000240              	nop				;  .
001100: 100004              	bpl	1112			; ..
001102: 001003              	bne	1112			; ..
001104: 102002              	bvc	1112			; ..
001106: 103001              	bcc	1112			; ..
001110: 101404              	blos	1122			; ..
001112: 012745 000006       	mov	#6,-(r5)		; e...
001116: 005245              	inc	-(r5)			; %.
001120: 000000              	halt				; ..
;
001122: 021527 000006       	cmp	(r5),#6			; W#..
001126: 001013              	bne	1156			; ..
001130: 005215              	inc	(r5)			; ..
001132: 000277              	scc				; ?.
001134: 000241              	clc				; !.
001136: 103407              	bcs	1156			; ..
001140: 000242              	clv				; ".
001142: 102405              	bvs	1156			; ..
001144: 000244              	clz				; $.
001146: 001403              	beq	1156			; ..
001150: 000250              	cln				; (.
001152: 100401              	bmi	1156			; ..
001154: 101004              	bhi	1166			; ..
001156: 012745 000007       	mov	#7,-(r5)		; e...
001162: 005245              	inc	-(r5)			; %.
001164: 000000              	halt				; ..
;
001166: 100000              	bpl	1170			; ..
001170: 021527 000007       	cmp	(r5),#7			; W#..
001174: 001404              	beq	1206			; ..
001176: 012745 000010       	mov	#10,-(r5)		; e...
001202: 005245              	inc	-(r5)			; %.
001204: 000000              	halt				; ..
;
001206: 005215              	inc	(r5)			; ..
001210: 000416              	br	1246			; ..
;
001212: 012745 000011       	mov	#11,-(r5)		; e...
001216: 005245              	inc	-(r5)			; %.
001220: 000000              	halt				; ..
;
001222: 000404              	br	1234			; ..
;
001224: 012745 000012       	mov	#12,-(r5)		; e...
001230: 005245              	inc	-(r5)			; %.
001232: 000000              	halt				; ..
;
001234: 000411              	br	1260			; ..
;
001236: 012745 000013       	mov	#13,-(r5)		; e...
001242: 005245              	inc	-(r5)			; %.
001244: 000000              	halt				; ..
;
001246: 000765              	br	1222			; u.
;
001250: 012745 000014       	mov	#14,-(r5)		; e...
001254: 005245              	inc	-(r5)			; %.
001256: 000000              	halt				; ..
;
001260: 000400              	br	1262			; ..
;
001262: 021527 000010       	cmp	(r5),#10		; W#..
001266: 001033              	bne	1356			; ..
001270: 005215              	inc	(r5)			; ..
001272: 012700 001312       	mov	#1312,r0		; @.J.
001276: 000277              	scc				; ?.
001300: 000110              	jmp	(r0)			; H.
;
001302: 012745 000015       	mov	#15,-(r5)		; e...
001306: 005245              	inc	-(r5)			; %.
001310: 000000              	halt				; ..
;
001312: 100003              	bpl	1322			; ..
001314: 001002              	bne	1322			; ..
001316: 102001              	bvc	1322			; ..
001320: 103404              	bcs	1332			; ..
001322: 012745 000016       	mov	#16,-(r5)		; e...
001326: 005245              	inc	-(r5)			; %.
001330: 000000              	halt				; ..
;
001332: 020027 001312       	cmp	r0,#1312		; . J.
001336: 001404              	beq	1350			; ..
001340: 012745 000017       	mov	#17,-(r5)		; e...
001344: 005245              	inc	-(r5)			; %.
001346: 000000              	halt				; ..
;
001350: 012700 001366       	mov	#1366,r0		; @.v.
001354: 000110              	jmp	(r0)			; H.
;
001356: 012745 000020       	mov	#20,-(r5)		; e...
001362: 005245              	inc	-(r5)			; %.
001364: 000000              	halt				; ..
;
001366: 021527 000011       	cmp	(r5),#11		; W#..
001372: 001073              	bne	1562			; ;.
001374: 005215              	inc	(r5)			; ..
001376: 012700 001416       	mov	#1416,r0		; @...
001402: 000277              	scc				; ?.
001404: 000120              	jmp	(r0)+			; P.
;
001406: 012745 000021       	mov	#21,-(r5)		; e...
001412: 005245              	inc	-(r5)			; %.
001414: 000000              	halt				; ..
;
001416: 100003              	bpl	1426			; ..
001420: 001002              	bne	1426			; ..
001422: 102001              	bvc	1426			; ..
001424: 103404              	bcs	1436			; ..
001426: 012745 000022       	mov	#22,-(r5)		; e...
001432: 005245              	inc	-(r5)			; %.
001434: 000000              	halt				; ..
;
001436: 020027 001420       	cmp	r0,#1420		; . ..
001442: 001404              	beq	1454			; ..
001444: 012745 000023       	mov	#23,-(r5)		; e...
001450: 005245              	inc	-(r5)			; %.
001452: 000000              	halt				; ..
;
001454: 012700 001472       	mov	#1472,r0		; @.:.
001460: 000120              	jmp	(r0)+			; P.
;
001462: 012745 000024       	mov	#24,-(r5)		; e...
001466: 005245              	inc	-(r5)			; %.
001470: 000000              	halt				; ..
;
001472: 012767 001526 176740	mov	#1526,440		; w.V.`}
001500: 012767 001546 176734	mov	#1546,442		; w.f.\}
001506: 012700 000440       	mov	#440,r0			; @. .
001512: 000277              	scc				; ?.
001514: 000130              	jmp	@(r0)+			; X.
;
001516: 012745 000025       	mov	#25,-(r5)		; e...
001522: 005245              	inc	-(r5)			; %.
001524: 000000              	halt				; ..
;
001526: 027067 000000 000012	cmp	@0(r0),1546		; 7.....
001534: 001404              	beq	1546			; ..
001536: 012745 000026       	mov	#26,-(r5)		; e...
001542: 005245              	inc	-(r5)			; %.
001544: 000000              	halt				; ..
;
001546: 012767 001572 176664	mov	#1572,440		; w.z.4}
001554: 012700 000440       	mov	#440,r0			; @. .
001560: 000130              	jmp	@(r0)+			; X.
;
001562: 012745 000027       	mov	#27,-(r5)		; e...
001566: 005245              	inc	-(r5)			; %.
001570: 000000              	halt				; ..
;
001572: 021527 000012       	cmp	(r5),#12		; W#..
001576: 001075              	bne	1772			; =.
001600: 005215              	inc	(r5)			; ..
001602: 012700 001624       	mov	#1624,r0		; @...
001606: 000277              	scc				; ?.
001610: 000140              	jmp	-(r0)			; `.
;
001612: 012745 000030       	mov	#30,-(r5)		; e...
001616: 005245              	inc	-(r5)			; %.
001620: 000000              	halt				; ..
;
001622: 000404              	br	1634			; ..
;
001624: 012745 000031       	mov	#31,-(r5)		; e...
001630: 005245              	inc	-(r5)			; %.
001632: 000000              	halt				; ..
;
001634: 022700 001622       	cmp	#1622,r0		; @%..
001640: 001404              	beq	1652			; ..
001642: 012745 000032       	mov	#32,-(r5)		; e...
001646: 005245              	inc	-(r5)			; %.
001650: 000000              	halt				; ..
;
001652: 012700 001672       	mov	#1672,r0		; @.:.
001656: 000140              	jmp	-(r0)			; `.
;
001660: 012745 000033       	mov	#33,-(r5)		; e...
001664: 005245              	inc	-(r5)			; %.
001666: 000000              	halt				; ..
;
001670: 012767 001722 176544	mov	#1722,442		; w.R.d}
001676: 012700 000442       	mov	#442,r0			; @.".
001702: 012767 001732 176530	mov	#1732,440		; w.Z.X}
001710: 000150              	jmp	@-(r0)			; h.
;
001712: 012745 000034       	mov	#34,-(r5)		; e...
001716: 005245              	inc	-(r5)			; %.
001720: 000000              	halt				; ..
;
001722: 012745 000035       	mov	#35,-(r5)		; e...
001726: 005245              	inc	-(r5)			; %.
001730: 000000              	halt				; ..
;
001732: 022700 000440       	cmp	#440,r0			; @% .
001736: 001404              	beq	1750			; ..
001740: 012745 000036       	mov	#36,-(r5)		; e...
001744: 005245              	inc	-(r5)			; %.
001746: 000000              	halt				; ..
;
001750: 012767 001722 176464	mov	#1722,442		; w.R.4}
001756: 012700 000442       	mov	#442,r0			; @.".
001762: 012767 002002 176450	mov	#2002,440		; w...(}
001770: 000150              	jmp	@-(r0)			; h.
;
001772: 012745 000037       	mov	#37,-(r5)		; e...
001776: 005245              	inc	-(r5)			; %.
002000: 000000              	halt				; ..
;
002002: 021527 000013       	cmp	(r5),#13		; W#..
002006: 001071              	bne	2172			; 9.
002010: 005215              	inc	(r5)			; ..
002012: 012703 002040       	mov	#2040,r3		; C. .
002016: 000163 177772       	jmp	177772(r3)		; s.z.
;
002022: 012745 000040       	mov	#40,-(r5)		; e. .
002026: 005245              	inc	-(r5)			; %.
002030: 000000              	halt				; ..
;
002032: 020327 002040       	cmp	r3,#2040		; W  .
002036: 001404              	beq	2050			; ..
002040: 012745 000041       	mov	#41,-(r5)		; e.!.
002044: 005245              	inc	-(r5)			; %.
002046: 000000              	halt				; ..
;
002050: 000167 000010       	jmp	2064			; w...
;
002054: 012745 000042       	mov	#42,-(r5)		; e.".
002060: 005245              	inc	-(r5)			; %.
002062: 000000              	halt				; ..
;
002064: 012703 002104       	mov	#2104,r3		; C.D.
002070: 000163 000000       	jmp	0(r3)			; s...
;
002074: 012745 000043       	mov	#43,-(r5)		; e.#.
002100: 005245              	inc	-(r5)			; %.
002102: 000000              	halt				; ..
;
002104: 012703 000440       	mov	#440,r3			; C. .
002110: 012713 002130       	mov	#2130,(r3)		; K.X.
002114: 000173 000000       	jmp	@0(r3)			; {...
;
002120: 012745 000044       	mov	#44,-(r5)		; e.$.
002124: 005245              	inc	-(r5)			; %.
002126: 000000              	halt				; ..
;
002130: 012713 002154       	mov	#2154,(r3)		; K.l.
002134: 012700 000434       	mov	#434,r0			; @...
002140: 000170 000004       	jmp	@4(r0)			; x...
;
002144: 012745 000045       	mov	#45,-(r5)		; e.%.
002150: 005245              	inc	-(r5)			; %.
002152: 000000              	halt				; ..
;
002154: 012767 002202 176256	mov	#2202,440		; w....|
002162: 012700 000440       	mov	#440,r0			; @. .
002166: 000170 000000       	jmp	@0(r0)			; x...
;
002172: 012745 000046       	mov	#46,-(r5)		; e.&.
002176: 005245              	inc	-(r5)			; %.
002200: 000000              	halt				; ..
;
002202: 021527 000014       	cmp	(r5),#14		; W#..
002206: 001177              	bne	2606			; ..
002210: 005215              	inc	(r5)			; ..
002212: 012706 000530       	mov	#530,r6			; F.X.
002216: 000277              	scc				; ?.
002220: 004767 000026       	jsr	r7,2252			; w...
002224: 012745 000047       	mov	#47,-(r5)		; e.'.
002230: 005245              	inc	-(r5)			; %.
002232: 000000              	halt				; ..
;
002234: 022706 000530       	cmp	#530,r6			; F%X.
002240: 001441              	beq	2344			; !.
002242: 012745 000050       	mov	#50,-(r5)		; e.(.
002246: 005245              	inc	-(r5)			; %.
002250: 000000              	halt				; ..
;
002252: 100003              	bpl	2262			; ..
002254: 001002              	bne	2262			; ..
002256: 102001              	bvc	2262			; ..
002260: 103404              	bcs	2272			; ..
002262: 012745 000051       	mov	#51,-(r5)		; e.).
002266: 005245              	inc	-(r5)			; %.
002270: 000000              	halt				; ..
;
002272: 022706 000526       	cmp	#526,r6			; F%V.
002276: 001404              	beq	2310			; ..
002300: 012745 000052       	mov	#52,-(r5)		; e.*.
002304: 005245              	inc	-(r5)			; %.
002306: 000000              	halt				; ..
;
002310: 022716 002224       	cmp	#2224,(r6)		; N%..
002314: 001404              	beq	2326			; ..
002316: 012745 000053       	mov	#53,-(r5)		; e.+.
002322: 005245              	inc	-(r5)			; %.
002324: 000000              	halt				; ..
;
002326: 012716 002234       	mov	#2234,(r6)		; N...
002332: 000207              	rts	r7			; ..
;
002334: 012745 000054       	mov	#54,-(r5)		; e.,.
002340: 005245              	inc	-(r5)			; %.
002342: 000000              	halt				; ..
;
002344: 010546              	mov	r5,-(r6)		; f.
002346: 016746 176064       	mov	436,-(r6)		; f.4|
002352: 016746 176060       	mov	436,-(r6)		; f.0|
002356: 016746 176070       	mov	452,-(r6)		; f.8|
002362: 010503              	mov	r5,r3			; C.
002364: 004467 000130       	jsr	r4,2520			; 7.X.
002370: 012745 000055       	mov	#55,-(r5)		; e.-.
002374: 005245              	inc	-(r5)			; %.
002376: 000000              	halt				; ..
;
002400: 100003              	bpl	2410			; ..
002402: 001002              	bne	2410			; ..
002404: 102001              	bvc	2410			; ..
002406: 103404              	bcs	2420			; ..
002410: 012743 000056       	mov	#56,-(r3)		; c...
002414: 005243              	inc	-(r3)			; #.
002416: 000000              	halt				; ..
;
002420: 022705 000404       	cmp	#404,r5			; E%..
002424: 001404              	beq	2436			; ..
002426: 012743 000057       	mov	#57,-(r3)		; c./.
002432: 005243              	inc	-(r3)			; #.
002434: 000000              	halt				; ..
;
002436: 022706 000530       	cmp	#530,r6			; F%X.
002442: 001404              	beq	2454			; ..
002444: 012745 000060       	mov	#60,-(r5)		; e.0.
002450: 005245              	inc	-(r5)			; %.
002452: 000000              	halt				; ..
;
002454: 012701 002562       	mov	#2562,r1		; A.r.
002460: 004011              	jsr	r0,(r1)			; ..
002462: 012745 000061       	mov	#61,-(r5)		; e.1.
002466: 005245              	inc	-(r5)			; %.
002470: 000000              	halt				; ..
;
002472: 012745 000062       	mov	#62,-(r5)		; e.2.
002476: 005245              	inc	-(r5)			; %.
002500: 000000              	halt				; ..
;
002502: 022706 000530       	cmp	#530,r6			; F%X.
002506: 001443              	beq	2616			; #.
002510: 012745 000063       	mov	#63,-(r5)		; e.3.
002514: 005245              	inc	-(r5)			; %.
002516: 000000              	halt				; ..
;
002520: 020427 002370       	cmp	r4,#2370		; .!x.
002524: 001404              	beq	2536			; ..
002526: 012745 000064       	mov	#64,-(r5)		; e.4.
002532: 005245              	inc	-(r5)			; %.
002534: 000000              	halt				; ..
;
002536: 010605              	mov	r6,r5			; ..
002540: 005725              	tst	(r5)+			; U.
002542: 012716 002400       	mov	#2400,(r6)		; N...
002546: 000277              	scc				; ?.
002550: 000205              	rts	r5			; ..
;
002552: 012745 000065       	mov	#65,-(r5)		; e.5.
002556: 005245              	inc	-(r5)			; %.
002560: 000000              	halt				; ..
;
002562: 020027 002462       	cmp	r0,#2462		; . 2.
002566: 001404              	beq	2600			; ..
002570: 012745 000066       	mov	#66,-(r5)		; e.6.
002574: 005245              	inc	-(r5)			; %.
002576: 000000              	halt				; ..
;
002600: 012700 002502       	mov	#2502,r0		; @.B.
002604: 000200              	rts	r0			; ..
;
002606: 012745 000067       	mov	#67,-(r5)		; e.7.
002612: 005245              	inc	-(r5)			; %.
002614: 000000              	halt				; ..
;
002616: 021527 000015       	cmp	(r5),#15		; W#..
002622: 001034              	bne	2714			; ..
002624: 005215              	inc	(r5)			; ..
002626: 010667 175606       	mov	r6,440			; 7..{
002632: 012700 000001       	mov	#1,r0			; @...
002636: 012701 000004       	mov	#4,r1			; A...
002642: 012702 000020       	mov	#20,r2			; B...
002646: 012703 000100       	mov	#100,r3			; C.@.
002652: 012704 000400       	mov	#400,r4			; D...
002656: 005006              	clr	r6			; ..
002660: 060006              	add	r0,r6			; .`
002662: 060106              	add	r1,r6			; F`
002664: 060206              	add	r2,r6			; .`
002666: 060306              	add	r3,r6			; F`
002670: 060406              	add	r4,r6			; .a
002672: 060506              	add	r5,r6			; Fa
002674: 022706 001131       	cmp	#1131,r6		; F%Y.
002700: 001003              	bne	2710			; ..
002702: 016706 175532       	mov	440,r6			; F.Z{
002706: 000406              	br	2724			; ..
;
002710: 016706 175524       	mov	440,r6			; F.T{
002714: 012745 000070       	mov	#70,-(r5)		; e.8.
002720: 005245              	inc	-(r5)			; %.
002722: 000000              	halt				; ..
;
002724: 021527 000016       	cmp	(r5),#16		; W#..
002730: 001404              	beq	2742			; ..
002732: 012745 000071       	mov	#71,-(r5)		; e.9.
002736: 005245              	inc	-(r5)			; %.
002740: 000000              	halt				; ..
;
002742: 005215              	inc	(r5)			; ..
002744: 000277              	scc				; ?.
002746: 105000              	clrb	r0			; ..
002750: 004737 017164       	jsr	r7,@#17164		; _.t.
002754: 105700              	tstb	r0			; @.
002756: 004737 017164       	jsr	r7,@#17164		; _.t.
002762: 112701 000377       	movb	#377,r1			; A...
002766: 004737 017252       	jsr	r7,@#17252		; _.*.
002772: 105701              	tstb	r1			; A.
002774: 004737 017252       	jsr	r7,@#17252		; _.*.
003000: 021527 000017       	cmp	(r5),#17		; W#..
003004: 001027              	bne	3064			; ..
003006: 005215              	inc	(r5)			; ..
003010: 000277              	scc				; ?.
003012: 152702 000377       	bisb	#377,r2			; BU..
003016: 004737 017272       	jsr	r7,@#17272		; _.:.
003022: 122702 000377       	cmpb	#377,r2			; B%..
003026: 001404              	beq	3040			; ..
003030: 012745 000072       	mov	#72,-(r5)		; e.:.
003034: 005245              	inc	-(r5)			; %.
003036: 000000              	halt				; ..
;
003040: 112700 000077       	movb	#77,r0			; @.?.
003044: 120002              	cmpb	r0,r2			; . 
003046: 100004              	bpl	3060			; ..
003050: 012745 000073       	mov	#73,-(r5)		; e.;.
003054: 005245              	inc	-(r5)			; %.
003056: 000000              	halt				; ..
;
003060: 120200              	cmpb	r2,r0			; . 
003062: 100404              	bmi	3074			; ..
003064: 012745 000074       	mov	#74,-(r5)		; e.<.
003070: 005245              	inc	-(r5)			; %.
003072: 000000              	halt				; ..
;
003074: 021527 000020       	cmp	(r5),#20		; W#..
003100: 001404              	beq	3112			; ..
003102: 012745 000075       	mov	#75,-(r5)		; e.=.
003106: 005245              	inc	-(r5)			; %.
003110: 000000              	halt				; ..
;
003112: 005215              	inc	(r5)			; ..
003114: 112703 000377       	movb	#377,r3			; C...
003120: 112700 000252       	movb	#252,r0			; @.*.
003124: 000277              	scc				; ?.
003126: 140003              	bicb	r0,r3			; .@
003130: 004737 017102       	jsr	r7,@#17102		; _.B.
003134: 130003              	bitb	r0,r3			; .0
003136: 001404              	beq	3150			; ..
003140: 012745 000076       	mov	#76,-(r5)		; e.>.
003144: 005245              	inc	-(r5)			; %.
003146: 000000              	halt				; ..
;
003150: 132703 000125       	bitb	#125,r3			; C5U.
003154: 004737 017102       	jsr	r7,@#17102		; _.B.
003160: 150003              	bisb	r0,r3			; .P
003162: 100404              	bmi	3174			; ..
003164: 012745 000077       	mov	#77,-(r5)		; e.?.
003170: 005245              	inc	-(r5)			; %.
003172: 000000              	halt				; ..
;
003174: 142703 000177       	bicb	#177,r3			; CE..
003200: 004737 017272       	jsr	r7,@#17272		; _.:.
003204: 132703 000377       	bitb	#377,r3			; C5..
003210: 004737 017272       	jsr	r7,@#17272		; _.:.
003214: 021527 000021       	cmp	(r5),#21		; W#..
003220: 001404              	beq	3232			; ..
003222: 012745 000100       	mov	#100,-(r5)		; e.@.
003226: 005245              	inc	-(r5)			; %.
003230: 000000              	halt				; ..
;
003232: 005215              	inc	(r5)			; ..
003234: 112704 000177       	movb	#177,r4			; D...
003240: 000261              	sec				; 1.
003242: 105204              	incb	r4			; ..
003244: 004737 017334       	jsr	r7,@#17334		; _.\.
003250: 112704 000376       	movb	#376,r4			; D.~.
003254: 105204              	incb	r4			; ..
003256: 004737 017272       	jsr	r7,@#17272		; _.:.
003262: 105204              	incb	r4			; ..
003264: 004737 017206       	jsr	r7,@#17206		; _...
003270: 105204              	incb	r4			; ..
003272: 004737 017102       	jsr	r7,@#17102		; _.B.
003276: 122704 000001       	cmpb	#1,r4			; D%..
003302: 001404              	beq	3314			; ..
003304: 012745 000101       	mov	#101,-(r5)		; e.A.
003310: 005245              	inc	-(r5)			; %.
003312: 000000              	halt				; ..
;
003314: 000261              	sec				; 1.
003316: 105304              	decb	r4			; D.
003320: 004737 017206       	jsr	r7,@#17206		; _...
003324: 105304              	decb	r4			; D.
003326: 004737 017272       	jsr	r7,@#17272		; _.:.
003332: 012704 000200       	mov	#200,r4			; D...
003336: 105304              	decb	r4			; D.
003340: 004737 017142       	jsr	r7,@#17142		; _.b.
003344: 105304              	decb	r4			; D.
003346: 004737 017102       	jsr	r7,@#17102		; _.B.
003352: 021527 000022       	cmp	(r5),#22		; W#..
003356: 001404              	beq	3370			; ..
003360: 012745 000102       	mov	#102,-(r5)		; e.B.
003364: 005245              	inc	-(r5)			; %.
003366: 000000              	halt				; ..
;
003370: 005215              	inc	(r5)			; ..
003372: 112703 000252       	movb	#252,r3			; C.*.
003376: 000277              	scc				; ?.
003400: 105103              	comb	r3			; C.
003402: 004737 017102       	jsr	r7,@#17102		; _.B.
003406: 122703 000125       	cmpb	#125,r3			; C%U.
003412: 001404              	beq	3424			; ..
003414: 012745 000103       	mov	#103,-(r5)		; e.C.
003420: 005245              	inc	-(r5)			; %.
003422: 000000              	halt				; ..
;
003424: 000277              	scc				; ?.
003426: 105103              	comb	r3			; C.
003430: 004737 017272       	jsr	r7,@#17272		; _.:.
003434: 122703 000252       	cmpb	#252,r3			; C%*.
003440: 001404              	beq	3452			; ..
003442: 012745 000104       	mov	#104,-(r5)		; e.D.
003446: 005245              	inc	-(r5)			; %.
003450: 000000              	halt				; ..
;
003452: 012703 000377       	mov	#377,r3			; C...
003456: 000277              	scc				; ?.
003460: 105103              	comb	r3			; C.
003462: 004737 017206       	jsr	r7,@#17206		; _...
003466: 021527 000023       	cmp	(r5),#23		; W#..
003472: 001025              	bne	3546			; ..
003474: 005215              	inc	(r5)			; ..
003476: 112700 000001       	movb	#1,r0			; @...
003502: 105400              	negb	r0			; ..
003504: 004737 017272       	jsr	r7,@#17272		; _.:.
003510: 122700 000377       	cmpb	#377,r0			; @%..
003514: 001404              	beq	3526			; ..
003516: 012745 000105       	mov	#105,-(r5)		; e.E.
003522: 005245              	inc	-(r5)			; %.
003524: 000000              	halt				; ..
;
003526: 012700 000200       	mov	#200,r0			; @...
003532: 105400              	negb	r0			; ..
003534: 004737 017334       	jsr	r7,@#17334		; _.\.
003540: 122700 000200       	cmpb	#200,r0			; @%..
003544: 001404              	beq	3556			; ..
003546: 012745 000106       	mov	#106,-(r5)		; e.F.
003552: 005245              	inc	-(r5)			; %.
003554: 000000              	halt				; ..
;
003556: 021527 000024       	cmp	(r5),#24		; W#..
003562: 001026              	bne	3640			; ..
003564: 005215              	inc	(r5)			; ..
003566: 112701 000040       	movb	#40,r1			; A. .
003572: 000257              	ccc				; /.
003574: 106101              	rolb	r1			; A.
003576: 106101              	rolb	r1			; A.
003600: 004737 017314       	jsr	r7,@#17314		; _.L.
003604: 122701 000200       	cmpb	#200,r1			; A%..
003610: 001404              	beq	3622			; ..
003612: 012745 000107       	mov	#107,-(r5)		; e.G.
003616: 005245              	inc	-(r5)			; %.
003620: 000000              	halt				; ..
;
003622: 106101              	rolb	r1			; A.
003624: 004737 017230       	jsr	r7,@#17230		; _...
003630: 106101              	rolb	r1			; A.
003632: 122701 000001       	cmpb	#1,r1			; A%..
003636: 001404              	beq	3650			; ..
003640: 012745 000110       	mov	#110,-(r5)		; e.H.
003644: 005245              	inc	-(r5)			; %.
003646: 000000              	halt				; ..
;
003650: 021527 000025       	cmp	(r5),#25		; W#..
003654: 001026              	bne	3732			; ..
003656: 005215              	inc	(r5)			; ..
003660: 112702 000004       	movb	#4,r2			; B...
003664: 000257              	ccc				; /.
003666: 106002              	rorb	r2			; ..
003670: 106002              	rorb	r2			; ..
003672: 122702 000001       	cmpb	#1,r2			; B%..
003676: 001404              	beq	3710			; ..
003700: 012745 000111       	mov	#111,-(r5)		; e.I.
003704: 005245              	inc	-(r5)			; %.
003706: 000000              	halt				; ..
;
003710: 106002              	rorb	r2			; ..
003712: 004737 017230       	jsr	r7,@#17230		; _...
003716: 106002              	rorb	r2			; ..
003720: 004737 017314       	jsr	r7,@#17314		; _.L.
003724: 122702 000200       	cmpb	#200,r2			; B%..
003730: 001404              	beq	3742			; ..
003732: 012745 000112       	mov	#112,-(r5)		; e.J.
003736: 005245              	inc	-(r5)			; %.
003740: 000000              	halt				; ..
;
003742: 021527 000026       	cmp	(r5),#26		; W#..
003746: 001404              	beq	3760			; ..
003750: 012745 000113       	mov	#113,-(r5)		; e.K.
003754: 005245              	inc	-(r5)			; %.
003756: 000000              	halt				; ..
;
003760: 005215              	inc	(r5)			; ..
003762: 112703 000040       	movb	#40,r3			; C. .
003766: 000257              	ccc				; /.
003770: 106303              	aslb	r3			; C.
003772: 106303              	aslb	r3			; C.
003774: 004737 017314       	jsr	r7,@#17314		; _.L.
004000: 122703 000200       	cmpb	#200,r3			; C%..
004004: 001404              	beq	4016			; ..
004006: 012745 000114       	mov	#114,-(r5)		; e.L.
004012: 005245              	inc	-(r5)			; %.
004014: 000000              	halt				; ..
;
004016: 106303              	aslb	r3			; C.
004020: 004737 017230       	jsr	r7,@#17230		; _...
004024: 106303              	aslb	r3			; C.
004026: 004737 017164       	jsr	r7,@#17164		; _.t.
004032: 021527 000027       	cmp	(r5),#27		; W#..
004036: 001034              	bne	4130			; ..
004040: 005215              	inc	(r5)			; ..
004042: 112704 000004       	movb	#4,r4			; D...
004046: 000257              	ccc				; /.
004050: 106204              	asrb	r4			; ..
004052: 106204              	asrb	r4			; ..
004054: 122704 000001       	cmpb	#1,r4			; D%..
004060: 001404              	beq	4072			; ..
004062: 012745 000115       	mov	#115,-(r5)		; e.M.
004066: 005245              	inc	-(r5)			; %.
004070: 000000              	halt				; ..
;
004072: 106204              	asrb	r4			; ..
004074: 004737 017230       	jsr	r7,@#17230		; _...
004100: 106204              	asrb	r4			; ..
004102: 004737 017164       	jsr	r7,@#17164		; _.t.
004106: 112703 000202       	movb	#202,r3			; C...
004112: 106203              	asrb	r3			; ..
004114: 106203              	asrb	r3			; ..
004116: 004737 017272       	jsr	r7,@#17272		; _.:.
004122: 122703 000340       	cmpb	#340,r3			; C%`.
004126: 001404              	beq	4140			; ..
004130: 012745 000116       	mov	#116,-(r5)		; e.N.
004134: 005245              	inc	-(r5)			; %.
004136: 000000              	halt				; ..
;
004140: 021527 000030       	cmp	(r5),#30		; W#..
004144: 001404              	beq	4156			; ..
004146: 012745 000117       	mov	#117,-(r5)		; e.O.
004152: 005245              	inc	-(r5)			; %.
004154: 000000              	halt				; ..
;
004156: 005215              	inc	(r5)			; ..
004160: 105000              	clrb	r0			; ..
004162: 000257              	ccc				; /.
004164: 105500              	adcb	r0			; @.
004166: 004737 017164       	jsr	r7,@#17164		; _.t.
004172: 000261              	sec				; 1.
004174: 105500              	adcb	r0			; @.
004176: 000261              	sec				; 1.
004200: 105500              	adcb	r0			; @.
004202: 004737 017062       	jsr	r7,@#17062		; _.2.
004206: 122700 000002       	cmpb	#2,r0			; @%..
004212: 001404              	beq	4224			; ..
004214: 012745 000120       	mov	#120,-(r5)		; e.P.
004220: 005245              	inc	-(r5)			; %.
004222: 000000              	halt				; ..
;
004224: 112700 000177       	movb	#177,r0			; @...
004230: 000261              	sec				; 1.
004232: 105500              	adcb	r0			; @.
004234: 004737 017314       	jsr	r7,@#17314		; _.L.
004240: 122700 000200       	cmpb	#200,r0			; @%..
004244: 001404              	beq	4256			; ..
004246: 012745 000121       	mov	#121,-(r5)		; e.Q.
004252: 005245              	inc	-(r5)			; %.
004254: 000000              	halt				; ..
;
004256: 112700 000377       	movb	#377,r0			; @...
004262: 000261              	sec				; 1.
004264: 105500              	adcb	r0			; @.
004266: 004737 017206       	jsr	r7,@#17206		; _...
004272: 021527 000031       	cmp	(r5),#31		; W#..
004276: 001404              	beq	4310			; ..
004300: 012745 000122       	mov	#122,-(r5)		; e.R.
004304: 005245              	inc	-(r5)			; %.
004306: 000000              	halt				; ..
;
004310: 005215              	inc	(r5)			; ..
004312: 112701 000003       	movb	#3,r1			; A...
004316: 000257              	ccc				; /.
004320: 105601              	sbcb	r1			; ..
004322: 004737 017062       	jsr	r7,@#17062		; _.2.
004326: 122701 000003       	cmpb	#3,r1			; A%..
004332: 001404              	beq	4344			; ..
004334: 012745 000123       	mov	#123,-(r5)		; e.S.
004340: 005245              	inc	-(r5)			; %.
004342: 000000              	halt				; ..
;
004344: 000261              	sec				; 1.
004346: 105601              	sbcb	r1			; ..
004350: 000261              	sec				; 1.
004352: 105601              	sbcb	r1			; ..
004354: 004737 017062       	jsr	r7,@#17062		; _.2.
004360: 122701 000001       	cmpb	#1,r1			; A%..
004364: 001404              	beq	4376			; ..
004366: 012745 000124       	mov	#124,-(r5)		; e.T.
004372: 005245              	inc	-(r5)			; %.
004374: 000000              	halt				; ..
;
004376: 000261              	sec				; 1.
004400: 105601              	sbcb	r1			; ..
004402: 004737 017164       	jsr	r7,@#17164		; _.t.
004406: 000261              	sec				; 1.
004410: 105601              	sbcb	r1			; ..
004412: 004737 017272       	jsr	r7,@#17272		; _.:.
004416: 122701 000377       	cmpb	#377,r1			; A%..
004422: 001404              	beq	4434			; ..
004424: 012745 000125       	mov	#125,-(r5)		; e.U.
004430: 005245              	inc	-(r5)			; %.
004432: 000000              	halt				; ..
;
004434: 112701 000200       	movb	#200,r1			; A...
004440: 000261              	sec				; 1.
004442: 105601              	sbcb	r1			; ..
004444: 004737 017122       	jsr	r7,@#17122		; _.R.
004450: 021527 000032       	cmp	(r5),#32		; W#..
004454: 001404              	beq	4466			; ..
004456: 012745 000126       	mov	#126,-(r5)		; e.V.
004462: 005245              	inc	-(r5)			; %.
004464: 000000              	halt				; ..
;
004466: 005215              	inc	(r5)			; ..
004470: 000277              	scc				; ?.
004472: 005000              	clr	r0			; ..
004474: 004737 017164       	jsr	r7,@#17164		; _.t.
004500: 005700              	tst	r0			; @.
004502: 004737 017164       	jsr	r7,@#17164		; _.t.
004506: 012704 177777       	mov	#177777,r4		; D...
004512: 010401              	mov	r4,r1			; ..
004514: 004737 017252       	jsr	r7,@#17252		; _.*.
004520: 005701              	tst	r1			; A.
004522: 004737 017252       	jsr	r7,@#17252		; _.*.
004526: 020401              	cmp	r4,r1			; .!
004530: 001404              	beq	4542			; ..
004532: 012745 000127       	mov	#127,-(r5)		; e.W.
004536: 005245              	inc	-(r5)			; %.
004540: 000000              	halt				; ..
;
004542: 000263              	invalid opcode			; 3.
004544: 010000              	mov	r0,r0			; ..
004546: 004767 012434       	jsr	r7,17206		; w...
004552: 021527 000033       	cmp	(r5),#33		; W#..
004556: 001026              	bne	4634			; ..
004560: 005215              	inc	(r5)			; ..
004562: 012700 177777       	mov	#177777,r0		; @...
004566: 050002              	bis	r0,r2			; .P
004570: 004737 017252       	jsr	r7,@#17252		; _.*.
004574: 020002              	cmp	r0,r2			; . 
004576: 001404              	beq	4610			; ..
004600: 012745 000130       	mov	#130,-(r5)		; e.X.
004604: 005245              	inc	-(r5)			; %.
004606: 000000              	halt				; ..
;
004610: 022702 000077       	cmp	#77,r2			; B%?.
004614: 100004              	bpl	4626			; ..
004616: 012745 000131       	mov	#131,-(r5)		; e.Y.
004622: 005245              	inc	-(r5)			; %.
004624: 000000              	halt				; ..
;
004626: 020227 000077       	cmp	r2,#77			; . ?.
004632: 100404              	bmi	4644			; ..
004634: 012745 000132       	mov	#132,-(r5)		; e.Z.
004640: 005245              	inc	-(r5)			; %.
004642: 000000              	halt				; ..
;
004644: 021527 000034       	cmp	(r5),#34		; W#..
004650: 001053              	bne	5000			; +.
004652: 005215              	inc	(r5)			; ..
004654: 012703 177777       	mov	#177777,r3		; C...
004660: 012700 000440       	mov	#440,r0			; @. .
004664: 012710 125252       	mov	#125252,(r0)		; H.**
004670: 000277              	scc				; ?.
004672: 041003              	bic	(r0),r3			; .B
004674: 004737 017102       	jsr	r7,@#17102		; _.B.
004700: 031003              	bit	(r0),r3			; .2
004702: 001404              	beq	4714			; ..
004704: 012745 000133       	mov	#133,-(r5)		; e.[.
004710: 005245              	inc	-(r5)			; %.
004712: 000000              	halt				; ..
;
004714: 032703 052525       	bit	#52525,r3		; C5UU
004720: 004737 017102       	jsr	r7,@#17102		; _.B.
004724: 052703 125252       	bis	#125252,r3		; CU**
004730: 100404              	bmi	4742			; ..
004732: 012745 000134       	mov	#134,-(r5)		; e.\.
004736: 005245              	inc	-(r5)			; %.
004740: 000000              	halt				; ..
;
004742: 042703 077777       	bic	#77777,r3		; CE..
004746: 004737 017272       	jsr	r7,@#17272		; _.:.
004752: 012700 177777       	mov	#177777,r0		; @...
004756: 030003              	bit	r0,r3			; .0
004760: 004737 017272       	jsr	r7,@#17272		; _.:.
004764: 000263              	invalid opcode			; 3.
004766: 040000              	bic	r0,r0			; .@
004770: 004737 017206       	jsr	r7,@#17206		; _...
004774: 005700              	tst	r0			; @.
004776: 001404              	beq	5010			; ..
005000: 012745 000135       	mov	#135,-(r5)		; e.].
005004: 005245              	inc	-(r5)			; %.
005006: 000000              	halt				; ..
;
005010: 021527 000035       	cmp	(r5),#35		; W#..
005014: 001404              	beq	5026			; ..
005016: 012745 000136       	mov	#136,-(r5)		; e.^.
005022: 005245              	inc	-(r5)			; %.
005024: 000000              	halt				; ..
;
005026: 005215              	inc	(r5)			; ..
005030: 012704 077777       	mov	#77777,r4		; D...
005034: 000261              	sec				; 1.
005036: 005204              	inc	r4			; ..
005040: 004737 017334       	jsr	r7,@#17334		; _.\.
005044: 012704 177776       	mov	#177776,r4		; D.~.
005050: 005204              	inc	r4			; ..
005052: 004737 017272       	jsr	r7,@#17272		; _.:.
005056: 005204              	inc	r4			; ..
005060: 004737 017206       	jsr	r7,@#17206		; _...
005064: 005204              	inc	r4			; ..
005066: 004737 017102       	jsr	r7,@#17102		; _.B.
005072: 022704 000001       	cmp	#1,r4			; D%..
005076: 001404              	beq	5110			; ..
005100: 012745 000137       	mov	#137,-(r5)		; e._.
005104: 005245              	inc	-(r5)			; %.
005106: 000000              	halt				; ..
;
005110: 000261              	sec				; 1.
005112: 005304              	dec	r4			; D.
005114: 004737 017206       	jsr	r7,@#17206		; _...
005120: 005304              	dec	r4			; D.
005122: 004737 017272       	jsr	r7,@#17272		; _.:.
005126: 012704 100000       	mov	#100000,r4		; D...
005132: 005304              	dec	r4			; D.
005134: 004737 017142       	jsr	r7,@#17142		; _.b.
005140: 005304              	dec	r4			; D.
005142: 004737 017102       	jsr	r7,@#17102		; _.B.
005146: 021527 000036       	cmp	(r5),#36		; W#..
005152: 001404              	beq	5164			; ..
005154: 012745 000140       	mov	#140,-(r5)		; e.`.
005160: 005245              	inc	-(r5)			; %.
005162: 000000              	halt				; ..
;
005164: 005215              	inc	(r5)			; ..
005166: 012703 125252       	mov	#125252,r3		; C.**
005172: 000277              	scc				; ?.
005174: 005103              	com	r3			; C.
005176: 004737 017102       	jsr	r7,@#17102		; _.B.
005202: 022703 052525       	cmp	#52525,r3		; C%UU
005206: 001404              	beq	5220			; ..
005210: 012745 000141       	mov	#141,-(r5)		; e.a.
005214: 005245              	inc	-(r5)			; %.
005216: 000000              	halt				; ..
;
005220: 000277              	scc				; ?.
005222: 005103              	com	r3			; C.
005224: 004737 017272       	jsr	r7,@#17272		; _.:.
005230: 022703 125252       	cmp	#125252,r3		; C%**
005234: 001404              	beq	5246			; ..
005236: 012745 000142       	mov	#142,-(r5)		; e.b.
005242: 005245              	inc	-(r5)			; %.
005244: 000000              	halt				; ..
;
005246: 012703 177777       	mov	#177777,r3		; C...
005252: 000277              	scc				; ?.
005254: 005103              	com	r3			; C.
005256: 004737 017206       	jsr	r7,@#17206		; _...
005262: 021527 000037       	cmp	(r5),#37		; W#..
005266: 001025              	bne	5342			; ..
005270: 005215              	inc	(r5)			; ..
005272: 012700 000001       	mov	#1,r0			; @...
005276: 005400              	neg	r0			; ..
005300: 004737 017272       	jsr	r7,@#17272		; _.:.
005304: 022700 177777       	cmp	#177777,r0		; @%..
005310: 001404              	beq	5322			; ..
005312: 012745 000143       	mov	#143,-(r5)		; e.c.
005316: 005245              	inc	-(r5)			; %.
005320: 000000              	halt				; ..
;
005322: 012700 100000       	mov	#100000,r0		; @...
005326: 005400              	neg	r0			; ..
005330: 004737 017334       	jsr	r7,@#17334		; _.\.
005334: 022700 100000       	cmp	#100000,r0		; @%..
005340: 001404              	beq	5352			; ..
005342: 012745 000144       	mov	#144,-(r5)		; e.d.
005346: 005245              	inc	-(r5)			; %.
005350: 000000              	halt				; ..
;
005352: 021527 000040       	cmp	(r5),#40		; W# .
005356: 001026              	bne	5434			; ..
005360: 005215              	inc	(r5)			; ..
005362: 012701 020000       	mov	#20000,r1		; A.. 
005366: 000257              	ccc				; /.
005370: 006101              	rol	r1			; A.
005372: 006101              	rol	r1			; A.
005374: 004737 017314       	jsr	r7,@#17314		; _.L.
005400: 022701 100000       	cmp	#100000,r1		; A%..
005404: 001404              	beq	5416			; ..
005406: 012745 000145       	mov	#145,-(r5)		; e.e.
005412: 005245              	inc	-(r5)			; %.
005414: 000000              	halt				; ..
;
005416: 006101              	rol	r1			; A.
005420: 004737 017230       	jsr	r7,@#17230		; _...
005424: 006101              	rol	r1			; A.
005426: 022701 000001       	cmp	#1,r1			; A%..
005432: 001404              	beq	5444			; ..
005434: 012745 000146       	mov	#146,-(r5)		; e.f.
005440: 005245              	inc	-(r5)			; %.
005442: 000000              	halt				; ..
;
005444: 021527 000041       	cmp	(r5),#41		; W#!.
005450: 001026              	bne	5526			; ..
005452: 005215              	inc	(r5)			; ..
005454: 012702 000004       	mov	#4,r2			; B...
005460: 000257              	ccc				; /.
005462: 006002              	ror	r2			; ..
005464: 006002              	ror	r2			; ..
005466: 022702 000001       	cmp	#1,r2			; B%..
005472: 001404              	beq	5504			; ..
005474: 012745 000147       	mov	#147,-(r5)		; e.g.
005500: 005245              	inc	-(r5)			; %.
005502: 000000              	halt				; ..
;
005504: 006002              	ror	r2			; ..
005506: 004737 017230       	jsr	r7,@#17230		; _...
005512: 006002              	ror	r2			; ..
005514: 004737 017314       	jsr	r7,@#17314		; _.L.
005520: 022702 100000       	cmp	#100000,r2		; B%..
005524: 001404              	beq	5536			; ..
005526: 012745 000150       	mov	#150,-(r5)		; e.h.
005532: 005245              	inc	-(r5)			; %.
005534: 000000              	halt				; ..
;
005536: 021527 000042       	cmp	(r5),#42		; W#".
005542: 001404              	beq	5554			; ..
005544: 012745 000151       	mov	#151,-(r5)		; e.i.
005550: 005245              	inc	-(r5)			; %.
005552: 000000              	halt				; ..
;
005554: 005215              	inc	(r5)			; ..
005556: 012703 020000       	mov	#20000,r3		; C.. 
005562: 000257              	ccc				; /.
005564: 006303              	asl	r3			; C.
005566: 006303              	asl	r3			; C.
005570: 004737 017314       	jsr	r7,@#17314		; _.L.
005574: 022703 100000       	cmp	#100000,r3		; C%..
005600: 001404              	beq	5612			; ..
005602: 012745 000152       	mov	#152,-(r5)		; e.j.
005606: 005245              	inc	-(r5)			; %.
005610: 000000              	halt				; ..
;
005612: 006303              	asl	r3			; C.
005614: 004737 017230       	jsr	r7,@#17230		; _...
005620: 006303              	asl	r3			; C.
005622: 004737 017164       	jsr	r7,@#17164		; _.t.
005626: 021527 000043       	cmp	(r5),#43		; W##.
005632: 001034              	bne	5724			; ..
005634: 005215              	inc	(r5)			; ..
005636: 012704 000004       	mov	#4,r4			; D...
005642: 000257              	ccc				; /.
005644: 006204              	asr	r4			; ..
005646: 006204              	asr	r4			; ..
005650: 022704 000001       	cmp	#1,r4			; D%..
005654: 001404              	beq	5666			; ..
005656: 012745 000153       	mov	#153,-(r5)		; e.k.
005662: 005245              	inc	-(r5)			; %.
005664: 000000              	halt				; ..
;
005666: 006204              	asr	r4			; ..
005670: 004737 017230       	jsr	r7,@#17230		; _...
005674: 006204              	asr	r4			; ..
005676: 004737 017164       	jsr	r7,@#17164		; _.t.
005702: 012703 100002       	mov	#100002,r3		; C...
005706: 006203              	asr	r3			; ..
005710: 006203              	asr	r3			; ..
005712: 004737 017272       	jsr	r7,@#17272		; _.:.
005716: 022703 160000       	cmp	#160000,r3		; C%.`
005722: 001404              	beq	5734			; ..
005724: 012745 000154       	mov	#154,-(r5)		; e.l.
005730: 005245              	inc	-(r5)			; %.
005732: 000000              	halt				; ..
;
005734: 021527 000044       	cmp	(r5),#44		; W#$.
005740: 001404              	beq	5752			; ..
005742: 012745 000155       	mov	#155,-(r5)		; e.m.
005746: 005245              	inc	-(r5)			; %.
005750: 000000              	halt				; ..
;
005752: 005215              	inc	(r5)			; ..
005754: 005000              	clr	r0			; ..
005756: 000257              	ccc				; /.
005760: 005500              	adc	r0			; @.
005762: 004737 017164       	jsr	r7,@#17164		; _.t.
005766: 000261              	sec				; 1.
005770: 005500              	adc	r0			; @.
005772: 000261              	sec				; 1.
005774: 005500              	adc	r0			; @.
005776: 004737 017062       	jsr	r7,@#17062		; _.2.
006002: 022700 000002       	cmp	#2,r0			; @%..
006006: 001404              	beq	6020			; ..
006010: 012745 000156       	mov	#156,-(r5)		; e.n.
006014: 005245              	inc	-(r5)			; %.
006016: 000000              	halt				; ..
;
006020: 012700 077777       	mov	#77777,r0		; @...
006024: 000261              	sec				; 1.
006026: 005500              	adc	r0			; @.
006030: 004737 017314       	jsr	r7,@#17314		; _.L.
006034: 022700 100000       	cmp	#100000,r0		; @%..
006040: 001404              	beq	6052			; ..
006042: 012745 000157       	mov	#157,-(r5)		; e.o.
006046: 005245              	inc	-(r5)			; %.
006050: 000000              	halt				; ..
;
006052: 012700 177777       	mov	#177777,r0		; @...
006056: 000261              	sec				; 1.
006060: 005500              	adc	r0			; @.
006062: 004737 017206       	jsr	r7,@#17206		; _...
006066: 021527 000045       	cmp	(r5),#45		; W#%.
006072: 001404              	beq	6104			; ..
006074: 012745 000160       	mov	#160,-(r5)		; e.p.
006100: 005245              	inc	-(r5)			; %.
006102: 000000              	halt				; ..
;
006104: 005215              	inc	(r5)			; ..
006106: 012701 000003       	mov	#3,r1			; A...
006112: 000257              	ccc				; /.
006114: 005601              	sbc	r1			; ..
006116: 004737 017062       	jsr	r7,@#17062		; _.2.
006122: 022701 000003       	cmp	#3,r1			; A%..
006126: 001404              	beq	6140			; ..
006130: 012745 000161       	mov	#161,-(r5)		; e.q.
006134: 005245              	inc	-(r5)			; %.
006136: 000000              	halt				; ..
;
006140: 000261              	sec				; 1.
006142: 005601              	sbc	r1			; ..
006144: 000261              	sec				; 1.
006146: 005601              	sbc	r1			; ..
006150: 004737 017062       	jsr	r7,@#17062		; _.2.
006154: 022701 000001       	cmp	#1,r1			; A%..
006160: 001404              	beq	6172			; ..
006162: 012745 000162       	mov	#162,-(r5)		; e.r.
006166: 005245              	inc	-(r5)			; %.
006170: 000000              	halt				; ..
;
006172: 000261              	sec				; 1.
006174: 005601              	sbc	r1			; ..
006176: 004737 017164       	jsr	r7,@#17164		; _.t.
006202: 000261              	sec				; 1.
006204: 005601              	sbc	r1			; ..
006206: 004737 017272       	jsr	r7,@#17272		; _.:.
006212: 022701 177777       	cmp	#177777,r1		; A%..
006216: 001404              	beq	6230			; ..
006220: 012745 000163       	mov	#163,-(r5)		; e.s.
006224: 005245              	inc	-(r5)			; %.
006226: 000000              	halt				; ..
;
006230: 012701 100000       	mov	#100000,r1		; A...
006234: 000261              	sec				; 1.
006236: 005601              	sbc	r1			; ..
006240: 004737 017122       	jsr	r7,@#17122		; _.R.
006244: 021527 000046       	cmp	(r5),#46		; W#&.
006250: 001024              	bne	6322			; ..
006252: 005215              	inc	(r5)			; ..
006254: 005002              	clr	r2			; ..
006256: 000277              	scc				; ?.
006260: 000254              	invalid opcode			; ,.
006262: 006702              	sxt	r2			; B.
006264: 004737 017206       	jsr	r7,@#17206		; _...
006270: 005702              	tst	r2			; B.
006272: 001404              	beq	6304			; ..
006274: 012745 000164       	mov	#164,-(r5)		; e.t.
006300: 005245              	inc	-(r5)			; %.
006302: 000000              	halt				; ..
;
006304: 000273              	invalid opcode			; ;.
006306: 006702              	sxt	r2			; B.
006310: 004737 017272       	jsr	r7,@#17272		; _.:.
006314: 022702 177777       	cmp	#177777,r2		; B%..
006320: 001404              	beq	6332			; ..
006322: 012745 000165       	mov	#165,-(r5)		; e.u.
006326: 005245              	inc	-(r5)			; %.
006330: 000000              	halt				; ..
;
006332: 021527 000047       	cmp	(r5),#47		; W#'.
006336: 001031              	bne	6422			; ..
006340: 005215              	inc	(r5)			; ..
006342: 012703 125125       	mov	#125125,r3		; C.U*
006346: 000277              	scc				; ?.
006350: 000250              	cln				; (.
006352: 000303              	swab	r3			; C.
006354: 004737 017252       	jsr	r7,@#17252		; _.*.
006360: 022703 052652       	cmp	#52652,r3		; C%*U
006364: 001404              	beq	6376			; ..
006366: 012745 000166       	mov	#166,-(r5)		; e.v.
006372: 005245              	inc	-(r5)			; %.
006374: 000000              	halt				; ..
;
006376: 012703 000377       	mov	#377,r3			; C...
006402: 000277              	scc				; ?.
006404: 000244              	clz				; $.
006406: 000303              	swab	r3			; C.
006410: 004737 017164       	jsr	r7,@#17164		; _.t.
006414: 022703 177400       	cmp	#177400,r3		; C%..
006420: 001404              	beq	6432			; ..
006422: 012745 000167       	mov	#167,-(r5)		; e.w.
006426: 005245              	inc	-(r5)			; %.
006430: 000000              	halt				; ..
;
006432: 021527 000050       	cmp	(r5),#50		; W#(.
006436: 001034              	bne	6530			; ..
006440: 005215              	inc	(r5)			; ..
006442: 012704 177777       	mov	#177777,r4		; D...
006446: 012703 177777       	mov	#177777,r3		; C...
006452: 000277              	scc				; ?.
006454: 074403              	xor	r3,r4			; .y
006456: 004737 017206       	jsr	r7,@#17206		; _...
006462: 012703 077777       	mov	#77777,r3		; C...
006466: 010400              	mov	r4,r0			; ..
006470: 000263              	invalid opcode			; 3.
006472: 000244              	clz				; $.
006474: 074003              	xor	r3,r0			; .x
006476: 004737 017272       	jsr	r7,@#17272		; _.:.
006502: 012702 125252       	mov	#125252,r2		; B.**
006506: 012704 052525       	mov	#52525,r4		; D.UU
006512: 000277              	scc				; ?.
006514: 074204              	xor	r4,r2			; .x
006516: 004737 017272       	jsr	r7,@#17272		; _.:.
006522: 022704 177777       	cmp	#177777,r4		; D%..
006526: 001404              	beq	6540			; ..
006530: 012745 000170       	mov	#170,-(r5)		; e.x.
006534: 005245              	inc	-(r5)			; %.
006536: 000000              	halt				; ..
;
006540: 021527 000051       	cmp	(r5),#51		; W#).
006544: 001055              	bne	6700			; -.
006546: 005215              	inc	(r5)			; ..
006550: 012701 021421       	mov	#21421,r1		; A..#
006554: 060101              	add	r1,r1			; A`
006556: 004737 017062       	jsr	r7,@#17062		; _.2.
006562: 022701 043042       	cmp	#43042,r1		; A%"F
006566: 001404              	beq	6600			; ..
006570: 012745 000171       	mov	#171,-(r5)		; e.y.
006574: 005245              	inc	-(r5)			; %.
006576: 000000              	halt				; ..
;
006600: 012700 156357       	mov	#156357,r0		; @.o\
006604: 060000              	add	r0,r0			; .`
006606: 004737 017272       	jsr	r7,@#17272		; _.:.
006612: 022700 134736       	cmp	#134736,r0		; @%^9
006616: 001404              	beq	6630			; ..
006620: 012745 000172       	mov	#172,-(r5)		; e.z.
006624: 005245              	inc	-(r5)			; %.
006626: 000000              	halt				; ..
;
006630: 012702 100000       	mov	#100000,r2		; B...
006634: 060202              	add	r2,r2			; .`
006636: 004737 017230       	jsr	r7,@#17230		; _...
006642: 012704 021421       	mov	#21421,r4		; D..#
006646: 012701 156357       	mov	#156357,r1		; A.o\
006652: 060401              	add	r4,r1			; .a
006654: 001404              	beq	6666			; ..
006656: 012745 000173       	mov	#173,-(r5)		; e.{.
006662: 005245              	inc	-(r5)			; %.
006664: 000000              	halt				; ..
;
006666: 005404              	neg	r4			; ..
006670: 012701 021421       	mov	#21421,r1		; A..#
006674: 060104              	add	r1,r4			; D`
006676: 001404              	beq	6710			; ..
006700: 012745 000174       	mov	#174,-(r5)		; e.|.
006704: 005245              	inc	-(r5)			; %.
006706: 000000              	halt				; ..
;
006710: 021527 000052       	cmp	(r5),#52		; W#*.
006714: 001404              	beq	6726			; ..
006716: 012745 000175       	mov	#175,-(r5)		; e.}.
006722: 005245              	inc	-(r5)			; %.
006724: 000000              	halt				; ..
;
006726: 005215              	inc	(r5)			; ..
006730: 012702 021421       	mov	#21421,r2		; B..#
006734: 012703 156357       	mov	#156357,r3		; C.o\
006740: 160203              	sub	r2,r3			; .`
006742: 004737 017252       	jsr	r7,@#17252		; _.*.
006746: 022703 134736       	cmp	#134736,r3		; C%^9
006752: 001404              	beq	6764			; ..
006754: 012745 000176       	mov	#176,-(r5)		; e.~.
006760: 005245              	inc	-(r5)			; %.
006762: 000000              	halt				; ..
;
006764: 012703 021421       	mov	#21421,r3		; C..#
006770: 010204              	mov	r2,r4			; ..
006772: 160403              	sub	r4,r3			; .a
006774: 001404              	beq	7006			; ..
006776: 012745 000177       	mov	#177,-(r5)		; e...
007002: 005245              	inc	-(r5)			; %.
007004: 000000              	halt				; ..
;
007006: 012703 177777       	mov	#177777,r3		; C...
007012: 012702 077777       	mov	#77777,r2		; B...
007016: 160302              	sub	r3,r2			; B`
007020: 004737 017334       	jsr	r7,@#17334		; _.\.
007024: 022702 100000       	cmp	#100000,r2		; B%..
007030: 001404              	beq	7042			; ..
007032: 012745 000200       	mov	#200,-(r5)		; e...
007036: 005245              	inc	-(r5)			; %.
007040: 000000              	halt				; ..
;
007042: 012704 177777       	mov	#177777,r4		; D...
007046: 160304              	sub	r3,r4			; D`
007050: 004737 017164       	jsr	r7,@#17164		; _.t.
007054: 021527 000053       	cmp	(r5),#53		; W#+.
007060: 001032              	bne	7146			; ..
007062: 005215              	inc	(r5)			; ..
007064: 012701 177777       	mov	#177777,r1		; A...
007070: 005000              	clr	r0			; ..
007072: 106400              	invalid opcode			; ..
007074: 004737 017062       	jsr	r7,@#17062		; _.2.
007100: 106701              MFPS R1 ;	invalid opcode			; A.
007102: 001404              	beq	7114			; ..
007104: 012745 000201       	mov	#201,-(r5)		; e...
007110: 005245              	inc	-(r5)			; %.
007112: 000000              	halt				; ..
;
007114: 004737 017164       	jsr	r7,@#17164		; _.t.
007120: 012700 000377       	mov	#377,r0			; @...
007124: 106400              	invalid opcode			; ..
007126: 004737 017354       	jsr	r7,@#17354		; _.l.
007132: 106701              	invalid opcode			; A.
007134: 004737 017272       	jsr	r7,@#17272		; _.:.
007140: 022701 177757       	cmp	#177757,r1		; A%o.
007144: 001404              	beq	7156			; ..
007146: 012745 000202       	mov	#202,-(r5)		; e...
007152: 005245              	inc	-(r5)			; %.
007154: 000000              	halt				; ..
;
007156: 021527 000054       	cmp	(r5),#54		; W#,.
007162: 001063              	bne	7332			; 3.
007164: 005215              	inc	(r5)			; ..
007166: 112700 000252       	movb	#252,r0			; @.*.
007172: 110001              	movb	r0,r1			; ..
007174: 110102              	movb	r1,r2			; B.
007176: 122702 000252       	cmpb	#252,r2			; B%*.
007202: 001404              	beq	7214			; ..
007204: 012745 000203       	mov	#203,-(r5)		; e...
007210: 005245              	inc	-(r5)			; %.
007212: 000000              	halt				; ..
;
007214: 012700 125252       	mov	#125252,r0		; @.**
007220: 010001              	mov	r0,r1			; ..
007222: 010102              	mov	r1,r2			; B.
007224: 022702 125252       	cmp	#125252,r2		; B%**
007230: 001404              	beq	7242			; ..
007232: 012745 000204       	mov	#204,-(r5)		; e...
007236: 005245              	inc	-(r5)			; %.
007240: 000000              	halt				; ..
;
007242: 012700 000440       	mov	#440,r0			; @. .
007246: 012701 000442       	mov	#442,r1			; A.".
007252: 012702 000444       	mov	#444,r2			; B.$.
007256: 005067 171162       	clr	444			; 7.rr
007262: 112710 000125       	movb	#125,(r0)		; H.U.
007266: 111011              	movb	(r0),(r1)		; ..
007270: 111112              	movb	(r1),(r2)		; J.
007272: 122767 000125 171144	cmpb	#125,444		; w%U.dr
007300: 001404              	beq	7312			; ..
007302: 012745 000205       	mov	#205,-(r5)		; e...
007306: 005245              	inc	-(r5)			; %.
007310: 000000              	halt				; ..
;
007312: 012710 052525       	mov	#52525,(r0)		; H.UU
007316: 011011              	mov	(r0),(r1)		; ..
007320: 011112              	mov	(r1),(r2)		; J.
007322: 022767 052525 171114	cmp	#52525,444		; w%UULr
007330: 001404              	beq	7342			; ..
007332: 012745 000206       	mov	#206,-(r5)		; e...
007336: 005245              	inc	-(r5)			; %.
007340: 000000              	halt				; ..
;
007342: 021527 000055       	cmp	(r5),#55		; W#-.
007346: 001050              	bne	7470			; (.
007350: 005215              	inc	(r5)			; ..
007352: 012700 000440       	mov	#440,r0			; @. .
007356: 012701 000442       	mov	#442,r1			; A.".
007362: 012702 000444       	mov	#444,r2			; B.$.
007366: 105022              	clrb	(r2)+			; ..
007370: 112710 000252       	movb	#252,(r0)		; H.*.
007374: 112021              	movb	(r0)+,(r1)+		; ..
007376: 105201              	incb	r1			; ..
007400: 111167 171034       	movb	(r1),440		; w..r
007404: 105200              	incb	r0			; ..
007406: 112021              	movb	(r0)+,(r1)+		; ..
007410: 124227 000252       	cmpb	-(r2),#252		; .(*.
007414: 001003              	bne	7424			; ..
007416: 105767 171016       	tstb	440			; w..r
007422: 001404              	beq	7434			; ..
007424: 012745 000207       	mov	#207,-(r5)		; e...
007430: 005245              	inc	-(r5)			; %.
007432: 000000              	halt				; ..
;
007434: 005741              	tst	-(r1)			; a.
007436: 005022              	clr	(r2)+			; ..
007440: 012740 125252       	mov	#125252,-(r0)		; `.**
007444: 012020              	mov	(r0)+,(r0)+		; ..
007446: 011067 170766       	mov	(r0),440		; 7.vq
007452: 012121              	mov	(r1)+,(r1)+		; Q.
007454: 024227 125252       	cmp	-(r2),#125252		; .(**
007460: 001003              	bne	7470			; ..
007462: 005767 170752       	tst	440			; w.jq
007466: 001404              	beq	7500			; ..
007470: 012745 000210       	mov	#210,-(r5)		; e...
007474: 005245              	inc	-(r5)			; %.
007476: 000000              	halt				; ..
;
007500: 021527 000056       	cmp	(r5),#56		; W#..
007504: 001066              	bne	7662			; 6.
007506: 005215              	inc	(r5)			; ..
007510: 012767 000440 170712	mov	#440,430		; w. .Jq
007516: 012767 000442 170706	mov	#442,432		; w.".Fq
007524: 012767 000444 170702	mov	#444,434		; w.$.Bq
007532: 012700 000430       	mov	#430,r0			; @...
007536: 012701 000432       	mov	#432,r1			; A...
007542: 105067 170676       	clrb	444			; 7.>q
007546: 112767 000125 170664	movb	#125,440		; w.U.4q
007554: 113031              	movb	@(r0)+,@(r1)+		; ..
007556: 113167 170656       	movb	@(r1)+,440		; w..q
007562: 113030              	movb	@(r0)+,@(r0)+		; ..
007564: 122767 000125 170652	cmpb	#125,444		; w%U.*q
007572: 001003              	bne	7602			; ..
007574: 105767 170640       	tstb	440			; w. q
007600: 001404              	beq	7612			; ..
007602: 012745 000211       	mov	#211,-(r5)		; e...
007606: 005245              	inc	-(r5)			; %.
007610: 000000              	halt				; ..
;
007612: 005067 170626       	clr	444			; 7..q
007616: 012767 052525 170614	mov	#52525,440		; w.UU.q
007624: 012700 000430       	mov	#430,r0			; @...
007630: 012701 000432       	mov	#432,r1			; A...
007634: 013030              	mov	@(r0)+,@(r0)+		; ..
007636: 013067 170576       	mov	@(r0)+,440		; 7.~q
007642: 013131              	mov	@(r1)+,@(r1)+		; Y.
007644: 022767 052525 170572	cmp	#52525,444		; w%UUzq
007652: 001003              	bne	7662			; ..
007654: 005767 170560       	tst	440			; w.pq
007660: 001404              	beq	7672			; ..
007662: 012745 000212       	mov	#212,-(r5)		; e...
007666: 005245              	inc	-(r5)			; %.
007670: 000000              	halt				; ..
;
007672: 021527 000057       	cmp	(r5),#57		; W#/.
007676: 001120              	bne	10140			; P.
007700: 005215              	inc	(r5)			; ..
007702: 105067 170532       	clrb	440			; 7.Zq
007706: 012700 000440       	mov	#440,r0			; @. .
007712: 012701 000442       	mov	#442,r1			; A.".
007716: 012702 000444       	mov	#444,r2			; B.$.
007722: 005202              	inc	r2			; ..
007724: 021267 170515       	cmp	(r2),445		; 7"Mq
007730: 001404              	beq	7742			; ..
007732: 012745 000213       	mov	#213,-(r5)		; e...
007736: 005245              	inc	-(r5)			; %.
007740: 000000              	halt				; ..
;
007742: 112742 000252       	movb	#252,-(r2)		; b.*.
007746: 005201              	inc	r1			; ..
007750: 005202              	inc	r2			; ..
007752: 114241              	movb	-(r2),-(r1)		; !.
007754: 005200              	inc	r0			; ..
007756: 005202              	inc	r2			; ..
007760: 114042              	movb	-(r0),-(r2)		; ".
007762: 105200              	incb	r0			; ..
007764: 021067 170451       	cmp	(r0),441		; 7")q
007770: 001404              	beq	10002			; ..
007772: 012745 000214       	mov	#214,-(r5)		; e...
007776: 005245              	inc	-(r5)			; %.
010000: 000000              	halt				; ..
;
010002: 105201              	incb	r1			; ..
010004: 114140              	movb	-(r1),-(r0)		; `.
010006: 122767 000252 170424	cmpb	#252,440		; w%*..q
010014: 001003              	bne	10024			; ..
010016: 105767 170422       	tstb	444			; w..q
010022: 001404              	beq	10034			; ..
010024: 012745 000215       	mov	#215,-(r5)		; e...
010030: 005245              	inc	-(r5)			; %.
010032: 000000              	halt				; ..
;
010034: 005067 170400       	clr	440			; 7..q
010040: 012700 000440       	mov	#440,r0			; @. .
010044: 012701 000442       	mov	#442,r1			; A.".
010050: 012702 000444       	mov	#444,r2			; B.$.
010054: 005722              	tst	(r2)+			; R.
010056: 021267 170364       	cmp	(r2),446		; 7"tp
010062: 001404              	beq	10074			; ..
010064: 012745 000216       	mov	#216,-(r5)		; e...
010070: 005245              	inc	-(r5)			; %.
010072: 000000              	halt				; ..
;
010074: 012742 125252       	mov	#125252,-(r2)		; b.**
010100: 005721              	tst	(r1)+			; Q.
010102: 005722              	tst	(r2)+			; R.
010104: 014241              	mov	-(r2),-(r1)		; !.
010106: 005720              	tst	(r0)+			; P.
010110: 005722              	tst	(r2)+			; R.
010112: 014042              	mov	-(r0),-(r2)		; ".
010114: 005720              	tst	(r0)+			; P.
010116: 005721              	tst	(r1)+			; Q.
010120: 014140              	mov	-(r1),-(r0)		; `.
010122: 022767 125252 170310	cmp	#125252,440		; w%**Hp
010130: 001003              	bne	10140			; ..
010132: 005767 170306       	tst	444			; w.Fp
010136: 001404              	beq	10150			; ..
010140: 012745 000217       	mov	#217,-(r5)		; e...
010144: 005245              	inc	-(r5)			; %.
010146: 000000              	halt				; ..
;
010150: 021527 000060       	cmp	(r5),#60		; W#0.
010154: 001105              	bne	10370			; E.
010156: 005215              	inc	(r5)			; ..
010160: 105067 170254       	clrb	440			; 7.,p
010164: 012767 000440 170236	mov	#440,430		; w. ..p
010172: 012767 000442 170232	mov	#442,432		; w."..p
010200: 012767 000444 170226	mov	#444,434		; w.$..p
010206: 012700 000430       	mov	#430,r0			; @...
010212: 012701 000432       	mov	#432,r1			; A...
010216: 012702 000434       	mov	#434,r2			; B...
010222: 005722              	tst	(r2)+			; R.
010224: 112752 000125       	movb	#125,@-(r2)		; j.U.
010230: 022122              	cmp	(r1)+,(r2)+		; R$
010232: 115251              	movb	@-(r2),@-(r1)		; ).
010234: 022022              	cmp	(r0)+,(r2)+		; .$
010236: 115052              	movb	@-(r0),@-(r2)		; *.
010240: 022022              	cmp	(r0)+,(r2)+		; .$
010242: 125052              	cmpb	@-(r0),@-(r2)		; **
010244: 001404              	beq	10256			; ..
010246: 012745 000220       	mov	#220,-(r5)		; e...
010252: 005245              	inc	-(r5)			; %.
010254: 000000              	halt				; ..
;
010256: 022120              	cmp	(r1)+,(r0)+		; P$
010260: 115150              	movb	@-(r1),@-(r0)		; h.
010262: 122767 000125 170150	cmpb	#125,440		; w%U.hp
010270: 001003              	bne	10300			; ..
010272: 105767 170146       	tstb	444			; w.fp
010276: 001404              	beq	10310			; ..
010300: 012745 000221       	mov	#221,-(r5)		; e...
010304: 005245              	inc	-(r5)			; %.
010306: 000000              	halt				; ..
;
010310: 005067 170124       	clr	440			; 7.Tp
010314: 012700 000430       	mov	#430,r0			; @...
010320: 012701 000432       	mov	#432,r1			; A...
010324: 012702 000434       	mov	#434,r2			; B...
010330: 005722              	tst	(r2)+			; R.
010332: 012752 052525       	mov	#52525,@-(r2)		; j.UU
010336: 022122              	cmp	(r1)+,(r2)+		; R$
010340: 015251              	mov	@-(r2),@-(r1)		; ).
010342: 022022              	cmp	(r0)+,(r2)+		; .$
010344: 015052              	mov	@-(r0),@-(r2)		; *.
010346: 022021              	cmp	(r0)+,(r1)+		; .$
010350: 015150              	mov	@-(r1),@-(r0)		; h.
010352: 022767 052525 170060	cmp	#52525,440		; w%UU0p
010360: 001003              	bne	10370			; ..
010362: 005767 170056       	tst	444			; w..p
010366: 001404              	beq	10400			; ..
010370: 012745 000222       	mov	#222,-(r5)		; e...
010374: 005245              	inc	-(r5)			; %.
010376: 000000              	halt				; ..
;
010400: 021527 000061       	cmp	(r5),#61		; W#1.
010404: 001055              	bne	10540			; -.
010406: 005215              	inc	(r5)			; ..
010410: 005067 170030       	clr	444			; 7..p
010414: 012700 000440       	mov	#440,r0			; @. .
010420: 012701 000442       	mov	#442,r1			; A.".
010424: 012702 000444       	mov	#444,r2			; B.$.
010430: 112760 000252 000000	movb	#252,0(r0)		; p.*...
010436: 112760 000252 000001	movb	#252,1(r0)		; p.*...
010444: 022767 125252 167766	cmp	#125252,440		; w%**vo
010452: 001012              	bne	10500			; ..
010454: 116062 000001 000000	movb	1(r0),0(r2)		; 2.....
010462: 116160 000002 000005	movb	2(r1),5(r0)		; p.....
010470: 022767 125252 167746	cmp	#125252,444		; w%**fo
010476: 001404              	beq	10510			; ..
010500: 012745 000223       	mov	#223,-(r5)		; e...
010504: 005245              	inc	-(r5)			; %.
010506: 000000              	halt				; ..
;
010510: 005067 167726       	clr	442			; 7.Vo
010514: 012760 052525 000000	mov	#52525,0(r0)		; p.UU..
010522: 016260 177774 000002	mov	177774(r2),2(r0)	; 0.|...
010530: 022767 052525 167704	cmp	#52525,442		; w%UUDo
010536: 001404              	beq	10550			; ..
010540: 012745 000224       	mov	#224,-(r5)		; e...
010544: 005245              	inc	-(r5)			; %.
010546: 000000              	halt				; ..
;
010550: 021527 000062       	cmp	(r5),#62		; W#2.
010554: 001052              	bne	10702			; *.
010556: 005215              	inc	(r5)			; ..
010560: 005067 167656       	clr	442			; 7..o
010564: 012767 000440 167636	mov	#440,430		; w. ..o
010572: 012767 000442 167632	mov	#442,432		; w."..o
010600: 012767 000444 167626	mov	#444,434		; w.$..o
010606: 012700 000430       	mov	#430,r0			; @...
010612: 012701 000432       	mov	#432,r1			; A...
010616: 012702 000434       	mov	#434,r2			; B...
010622: 112770 000252 000000	movb	#252,@0(r0)		; x.*...
010630: 117270 177774 000002	movb	@177774(r2),@2(r0)	; 8.|...
010636: 122767 000252 167576	cmpb	#252,442		; w%*.~o
010644: 001404              	beq	10656			; ..
010646: 012745 000225       	mov	#225,-(r5)		; e...
010652: 005245              	inc	-(r5)			; %.
010654: 000000              	halt				; ..
;
010656: 012770 125252 000000	mov	#125252,@0(r0)		; x.**..
010664: 017270 177774 000002	mov	@177774(r2),@2(r0)	; 8.|...
010672: 022767 125252 167542	cmp	#125252,442		; w%**bo
010700: 001404              	beq	10712			; ..
010702: 012745 000226       	mov	#226,-(r5)		; e...
010706: 005245              	inc	-(r5)			; %.
010710: 000000              	halt				; ..
;
010712: 021527 000063       	cmp	(r5),#63		; W#3.
010716: 001042              	bne	11024			; ".
010720: 005215              	inc	(r5)			; ..
010722: 012700 000440       	mov	#440,r0			; @. .
010726: 012701 000442       	mov	#442,r1			; A.".
010732: 000277              	scc				; ?.
010734: 105010              	clrb	(r0)			; ..
010736: 004737 017164       	jsr	r7,@#17164		; _.t.
010742: 105710              	tstb	(r0)			; H.
010744: 004737 017164       	jsr	r7,@#17164		; _.t.
010750: 112711 000377       	movb	#377,(r1)		; I...
010754: 004737 017252       	jsr	r7,@#17252		; _.*.
010760: 105711              	tstb	(r1)			; I.
010762: 004737 017252       	jsr	r7,@#17252		; _.*.
010766: 010002              	mov	r0,r2			; ..
010770: 112762 000200 000000	movb	#200,0(r2)		; r.....
010776: 112241              	movb	(r2)+,-(r1)		; !.
011000: 026127 177777 100200	cmp	177777(r1),#100200	; W,....
011006: 001404              	beq	11020			; ..
011010: 012745 000227       	mov	#227,-(r5)		; e...
011014: 005245              	inc	-(r5)			; %.
011016: 000000              	halt				; ..
;
011020: 020102              	cmp	r1,r2			; B 
011022: 001404              	beq	11034			; ..
011024: 012745 000230       	mov	#230,-(r5)		; e...
011030: 005245              	inc	-(r5)			; %.
011032: 000000              	halt				; ..
;
011034: 021527 000064       	cmp	(r5),#64		; W#4.
011040: 001032              	bne	11126			; ..
011042: 005215              	inc	(r5)			; ..
011044: 012701 000444       	mov	#444,r1			; A.$.
011050: 012702 000440       	mov	#440,r2			; B. .
011054: 012711 000077       	mov	#77,(r1)		; I.?.
011060: 112704 000377       	movb	#377,r4			; D...
011064: 150412              	bisb	r4,(r2)			; .Q
011066: 004737 017252       	jsr	r7,@#17252		; _.*.
011072: 120412              	cmpb	r4,(r2)			; .!
011074: 001404              	beq	11106			; ..
011076: 012745 000231       	mov	#231,-(r5)		; e...
011102: 005245              	inc	-(r5)			; %.
011104: 000000              	halt				; ..
;
011106: 121112              	cmpb	(r1),(r2)		; J"
011110: 100004              	bpl	11122			; ..
011112: 012745 000232       	mov	#232,-(r5)		; e...
011116: 005245              	inc	-(r5)			; %.
011120: 000000              	halt				; ..
;
011122: 121211              	cmpb	(r2),(r1)		; ."
011124: 100404              	bmi	11136			; ..
011126: 012745 000233       	mov	#233,-(r5)		; e...
011132: 005245              	inc	-(r5)			; %.
011134: 000000              	halt				; ..
;
011136: 021527 000065       	cmp	(r5),#65		; W#5.
011142: 001404              	beq	11154			; ..
011144: 012745 000234       	mov	#234,-(r5)		; e...
011150: 005245              	inc	-(r5)			; %.
011152: 000000              	halt				; ..
;
011154: 005215              	inc	(r5)			; ..
011156: 012703 000440       	mov	#440,r3			; C. .
011162: 112713 000377       	movb	#377,(r3)		; K...
011166: 012700 000442       	mov	#442,r0			; @.".
011172: 010001              	mov	r0,r1			; ..
011174: 112721 000252       	movb	#252,(r1)+		; Q.*.
011200: 000277              	scc				; ?.
011202: 146013 000000       	bicb	0(r0),(r3)		; .L..
011206: 004737 017102       	jsr	r7,@#17102		; _.B.
011212: 136113 177777       	bitb	177777(r1),(r3)		; K<..
011216: 001404              	beq	11230			; ..
011220: 012745 000235       	mov	#235,-(r5)		; e...
011224: 005245              	inc	-(r5)			; %.
011226: 000000              	halt				; ..
;
011230: 132713 000125       	bitb	#125,(r3)		; K5U.
011234: 004737 017102       	jsr	r7,@#17102		; _.B.
011240: 154113              	bisb	-(r1),(r3)		; KX
011242: 100404              	bmi	11254			; ..
011244: 012745 000236       	mov	#236,-(r5)		; e...
011250: 005245              	inc	-(r5)			; %.
011252: 000000              	halt				; ..
;
011254: 012746 000177       	mov	#177,-(r6)		; f...
011260: 142613              	bicb	(r6)+,(r3)		; .E
011262: 004737 017272       	jsr	r7,@#17272		; _.:.
011266: 132713 000377       	bitb	#377,(r3)		; K5..
011272: 004737 017272       	jsr	r7,@#17272		; _.:.
011276: 010300              	mov	r3,r0			; @.
011300: 012710 000442       	mov	#442,(r0)		; H.".
011304: 012730 000377       	mov	#377,@(r0)+		; X...
011310: 000263              	invalid opcode			; 3.
011312: 145070 000000       	bicb	@-(r0),@0(r0)		; 8J..
011316: 004737 017206       	jsr	r7,@#17206		; _...
011322: 022027 000442       	cmp	(r0)+,#442		; .$".
011326: 001404              	beq	11340			; ..
011330: 012745 000237       	mov	#237,-(r5)		; e...
011334: 005245              	inc	-(r5)			; %.
011336: 000000              	halt				; ..
;
011340: 005750              	tst	@-(r0)			; h.
011342: 001404              	beq	11354			; ..
011344: 012745 000240       	mov	#240,-(r5)		; e. .
011350: 005245              	inc	-(r5)			; %.
011352: 000000              	halt				; ..
;
011354: 000257              	ccc				; /.
011356: 141010              	bicb	(r0),(r0)		; .B
011360: 004737 017164       	jsr	r7,@#17164		; _.t.
011364: 021527 000066       	cmp	(r5),#66		; W#6.
011370: 001067              	bne	11550			; 7.
011372: 005215              	inc	(r5)			; ..
011374: 012704 000440       	mov	#440,r4			; D. .
011400: 112714 000177       	movb	#177,(r4)		; L...
011404: 000261              	sec				; 1.
011406: 105214              	incb	(r4)			; ..
011410: 004737 017334       	jsr	r7,@#17334		; _.\.
011414: 012714 000376       	mov	#376,(r4)		; L.~.
011420: 012700 017272       	mov	#17272,r0		; @.:.
011424: 105224              	incb	(r4)+			; ..
011426: 004720              	jsr	r7,(r0)+		; P.
011430: 105744              	tstb	-(r4)			; d.
011432: 005746              	tst	-(r6)			; f.
011434: 010426              	mov	r4,(r6)+		; ..
011436: 000241              	clc				; !.
011440: 105256              	incb	@-(r6)			; ..
011442: 004737 017164       	jsr	r7,@#17164		; _.t.
011446: 123634              	cmpb	@(r6)+,@(r4)+		; .'
011450: 000261              	sec				; 1.
011452: 105264 177777       	incb	177777(r4)		; 4...
011456: 004737 017102       	jsr	r7,@#17102		; _.B.
011462: 124427 000001       	cmpb	-(r4),#1		; .)..
011466: 001404              	beq	11500			; ..
011470: 012745 000241       	mov	#241,-(r5)		; e.!.
011474: 005245              	inc	-(r5)			; %.
011476: 000000              	halt				; ..
;
011500: 000261              	sec				; 1.
011502: 105314              	decb	(r4)			; L.
011504: 004737 017206       	jsr	r7,@#17206		; _...
011510: 105324              	decb	(r4)+			; T.
011512: 004740              	jsr	r7,-(r0)		; `.
011514: 112764 000200 177777	movb	#200,177777(r4)		; t.....
011522: 105344              	decb	-(r4)			; d.
011524: 004760 177650       	jsr	r7,177650(r0)		; p.(.
011530: 105364 000000       	decb	0(r4)			; t...
011534: 004737 017102       	jsr	r7,@#17102		; _.B.
011540: 126427 000000 000176	cmpb	0(r4),#176		; .-..~.
011546: 001404              	beq	11560			; ..
011550: 012745 000242       	mov	#242,-(r5)		; e.".
011554: 005245              	inc	-(r5)			; %.
011556: 000000              	halt				; ..
;
011560: 021527 000067       	cmp	(r5),#67		; W#7.
011564: 001404              	beq	11576			; ..
011566: 012745 000243       	mov	#243,-(r5)		; e.#.
011572: 005245              	inc	-(r5)			; %.
011574: 000000              	halt				; ..
;
011576: 005215              	inc	(r5)			; ..
011600: 012703 000440       	mov	#440,r3			; C. .
011604: 012704 000442       	mov	#442,r4			; D.".
011610: 012714 000252       	mov	#252,(r4)		; L.*.
011614: 112413              	movb	(r4)+,(r3)		; ..
011616: 000277              	scc				; ?.
011620: 105113              	comb	(r3)			; K.
011622: 004737 017102       	jsr	r7,@#17102		; _.B.
011626: 122713 000125       	cmpb	#125,(r3)		; K%U.
011632: 001404              	beq	11644			; ..
011634: 012745 000244       	mov	#244,-(r5)		; e.$.
011640: 005245              	inc	-(r5)			; %.
011642: 000000              	halt				; ..
;
011644: 000277              	scc				; ?.
011646: 105113              	comb	(r3)			; K.
011650: 004737 017272       	jsr	r7,@#17272		; _.:.
011654: 010400              	mov	r4,r0			; ..
011656: 126013 177777       	cmpb	177777(r0),(r3)		; .,..
011662: 001404              	beq	11674			; ..
011664: 012745 000245       	mov	#245,-(r5)		; e.%.
011670: 005245              	inc	-(r5)			; %.
011672: 000000              	halt				; ..
;
011674: 112724 000377       	movb	#377,(r4)+		; T...
011700: 114413              	movb	-(r4),(r3)		; ..
011702: 000277              	scc				; ?.
011704: 105113              	comb	(r3)			; K.
011706: 004737 017206       	jsr	r7,@#17206		; _...
011712: 021527 000070       	cmp	(r5),#70		; W#8.
011716: 001027              	bne	11776			; ..
011720: 005215              	inc	(r5)			; ..
011722: 012700 000440       	mov	#440,r0			; @. .
011726: 112710 000001       	movb	#1,(r0)			; H...
011732: 105410              	negb	(r0)			; ..
011734: 004737 017272       	jsr	r7,@#17272		; _.:.
011740: 122710 000377       	cmpb	#377,(r0)		; H%..
011744: 001404              	beq	11756			; ..
011746: 012745 000246       	mov	#246,-(r5)		; e.&.
011752: 005245              	inc	-(r5)			; %.
011754: 000000              	halt				; ..
;
011756: 012710 000200       	mov	#200,(r0)		; H...
011762: 105410              	negb	(r0)			; ..
011764: 004737 017334       	jsr	r7,@#17334		; _.\.
011770: 122710 000200       	cmpb	#200,(r0)		; H%..
011774: 001404              	beq	12006			; ..
011776: 012745 000247       	mov	#247,-(r5)		; e.'.
012002: 005245              	inc	-(r5)			; %.
012004: 000000              	halt				; ..
;
012006: 021527 000071       	cmp	(r5),#71		; W#9.
012012: 001030              	bne	12074			; ..
012014: 005215              	inc	(r5)			; ..
012016: 012701 000442       	mov	#442,r1			; A.".
012022: 112711 000040       	movb	#40,(r1)		; I. .
012026: 000257              	ccc				; /.
012030: 106111              	rolb	(r1)			; I.
012032: 106111              	rolb	(r1)			; I.
012034: 004737 017314       	jsr	r7,@#17314		; _.L.
012040: 122711 000200       	cmpb	#200,(r1)		; I%..
012044: 001404              	beq	12056			; ..
012046: 012745 000250       	mov	#250,-(r5)		; e.(.
012052: 005245              	inc	-(r5)			; %.
012054: 000000              	halt				; ..
;
012056: 106111              	rolb	(r1)			; I.
012060: 004737 017230       	jsr	r7,@#17230		; _...
012064: 106111              	rolb	(r1)			; I.
012066: 122711 000001       	cmpb	#1,(r1)			; I%..
012072: 001404              	beq	12104			; ..
012074: 012745 000251       	mov	#251,-(r5)		; e.).
012100: 005245              	inc	-(r5)			; %.
012102: 000000              	halt				; ..
;
012104: 021527 000072       	cmp	(r5),#72		; W#:.
012110: 001030              	bne	12172			; ..
012112: 005215              	inc	(r5)			; ..
012114: 012702 000442       	mov	#442,r2			; B.".
012120: 112712 000004       	movb	#4,(r2)			; J...
012124: 000257              	ccc				; /.
012126: 106012              	rorb	(r2)			; ..
012130: 106012              	rorb	(r2)			; ..
012132: 122712 000001       	cmpb	#1,(r2)			; J%..
012136: 001404              	beq	12150			; ..
012140: 012745 000252       	mov	#252,-(r5)		; e.*.
012144: 005245              	inc	-(r5)			; %.
012146: 000000              	halt				; ..
;
012150: 106012              	rorb	(r2)			; ..
012152: 004737 017230       	jsr	r7,@#17230		; _...
012156: 106012              	rorb	(r2)			; ..
012160: 004737 017314       	jsr	r7,@#17314		; _.L.
012164: 122712 000200       	cmpb	#200,(r2)		; J%..
012170: 001404              	beq	12202			; ..
012172: 012745 000253       	mov	#253,-(r5)		; e.+.
012176: 005245              	inc	-(r5)			; %.
012200: 000000              	halt				; ..
;
012202: 021527 000073       	cmp	(r5),#73		; W#;.
012206: 001404              	beq	12220			; ..
012210: 012745 000254       	mov	#254,-(r5)		; e.,.
012214: 005245              	inc	-(r5)			; %.
012216: 000000              	halt				; ..
;
012220: 005215              	inc	(r5)			; ..
012222: 012703 000442       	mov	#442,r3			; C.".
012226: 112713 000040       	movb	#40,(r3)		; K. .
012232: 000257              	ccc				; /.
012234: 106313              	aslb	(r3)			; K.
012236: 106313              	aslb	(r3)			; K.
012240: 004737 017314       	jsr	r7,@#17314		; _.L.
012244: 122713 000200       	cmpb	#200,(r3)		; K%..
012250: 001404              	beq	12262			; ..
012252: 012745 000255       	mov	#255,-(r5)		; e.-.
012256: 005245              	inc	-(r5)			; %.
012260: 000000              	halt				; ..
;
012262: 106313              	aslb	(r3)			; K.
012264: 004737 017230       	jsr	r7,@#17230		; _...
012270: 106313              	aslb	(r3)			; K.
012272: 004737 017164       	jsr	r7,@#17164		; _.t.
012276: 021527 000074       	cmp	(r5),#74		; W#<.
012302: 001040              	bne	12404			;  .
012304: 005215              	inc	(r5)			; ..
012306: 012704 000442       	mov	#442,r4			; D.".
012312: 012703 000444       	mov	#444,r3			; C.$.
012316: 112714 000004       	movb	#4,(r4)			; L...
012322: 000257              	ccc				; /.
012324: 106214              	asrb	(r4)			; ..
012326: 106214              	asrb	(r4)			; ..
012330: 122714 000001       	cmpb	#1,(r4)			; L%..
012334: 001404              	beq	12346			; ..
012336: 012745 000256       	mov	#256,-(r5)		; e...
012342: 005245              	inc	-(r5)			; %.
012344: 000000              	halt				; ..
;
012346: 106214              	asrb	(r4)			; ..
012350: 004737 017230       	jsr	r7,@#17230		; _...
012354: 106214              	asrb	(r4)			; ..
012356: 004737 017164       	jsr	r7,@#17164		; _.t.
012362: 112713 000202       	movb	#202,(r3)		; K...
012366: 106213              	asrb	(r3)			; ..
012370: 106213              	asrb	(r3)			; ..
012372: 004737 017272       	jsr	r7,@#17272		; _.:.
012376: 122713 000340       	cmpb	#340,(r3)		; K%`.
012402: 001404              	beq	12414			; ..
012404: 012745 000257       	mov	#257,-(r5)		; e./.
012410: 005245              	inc	-(r5)			; %.
012412: 000000              	halt				; ..
;
012414: 021527 000075       	cmp	(r5),#75		; W#=.
012420: 001404              	beq	12432			; ..
012422: 012745 000260       	mov	#260,-(r5)		; e.0.
012426: 005245              	inc	-(r5)			; %.
012430: 000000              	halt				; ..
;
012432: 005215              	inc	(r5)			; ..
012434: 012700 000444       	mov	#444,r0			; @.$.
012440: 105010              	clrb	(r0)			; ..
012442: 000257              	ccc				; /.
012444: 105510              	adcb	(r0)			; H.
012446: 004737 017164       	jsr	r7,@#17164		; _.t.
012452: 000261              	sec				; 1.
012454: 105510              	adcb	(r0)			; H.
012456: 000261              	sec				; 1.
012460: 105510              	adcb	(r0)			; H.
012462: 004737 017062       	jsr	r7,@#17062		; _.2.
012466: 122710 000002       	cmpb	#2,(r0)			; H%..
012472: 001404              	beq	12504			; ..
012474: 012745 000261       	mov	#261,-(r5)		; e.1.
012500: 005245              	inc	-(r5)			; %.
012502: 000000              	halt				; ..
;
012504: 112710 000177       	movb	#177,(r0)		; H...
012510: 000261              	sec				; 1.
012512: 105510              	adcb	(r0)			; H.
012514: 004737 017314       	jsr	r7,@#17314		; _.L.
012520: 122710 000200       	cmpb	#200,(r0)		; H%..
012524: 001404              	beq	12536			; ..
012526: 012745 000262       	mov	#262,-(r5)		; e.2.
012532: 005245              	inc	-(r5)			; %.
012534: 000000              	halt				; ..
;
012536: 112710 000377       	movb	#377,(r0)		; H...
012542: 000261              	sec				; 1.
012544: 105510              	adcb	(r0)			; H.
012546: 004737 017206       	jsr	r7,@#17206		; _...
012552: 021527 000076       	cmp	(r5),#76		; W#>.
012556: 001404              	beq	12570			; ..
012560: 012745 000263       	mov	#263,-(r5)		; e.3.
012564: 005245              	inc	-(r5)			; %.
012566: 000000              	halt				; ..
;
012570: 005215              	inc	(r5)			; ..
012572: 012701 000444       	mov	#444,r1			; A.$.
012576: 112711 000003       	movb	#3,(r1)			; I...
012602: 000257              	ccc				; /.
012604: 105611              	sbcb	(r1)			; ..
012606: 004737 017062       	jsr	r7,@#17062		; _.2.
012612: 122711 000003       	cmpb	#3,(r1)			; I%..
012616: 001404              	beq	12630			; ..
012620: 012745 000264       	mov	#264,-(r5)		; e.4.
012624: 005245              	inc	-(r5)			; %.
012626: 000000              	halt				; ..
;
012630: 000261              	sec				; 1.
012632: 105611              	sbcb	(r1)			; ..
012634: 000261              	sec				; 1.
012636: 105611              	sbcb	(r1)			; ..
012640: 004737 017062       	jsr	r7,@#17062		; _.2.
012644: 122711 000001       	cmpb	#1,(r1)			; I%..
012650: 001404              	beq	12662			; ..
012652: 012745 000265       	mov	#265,-(r5)		; e.5.
012656: 005245              	inc	-(r5)			; %.
012660: 000000              	halt				; ..
;
012662: 000261              	sec				; 1.
012664: 105611              	sbcb	(r1)			; ..
012666: 004737 017164       	jsr	r7,@#17164		; _.t.
012672: 000261              	sec				; 1.
012674: 105611              	sbcb	(r1)			; ..
012676: 004737 017272       	jsr	r7,@#17272		; _.:.
012702: 122711 000377       	cmpb	#377,(r1)		; I%..
012706: 001404              	beq	12720			; ..
012710: 012745 000266       	mov	#266,-(r5)		; e.6.
012714: 005245              	inc	-(r5)			; %.
012716: 000000              	halt				; ..
;
012720: 112711 000200       	movb	#200,(r1)		; I...
012724: 000261              	sec				; 1.
012726: 105611              	sbcb	(r1)			; ..
012730: 004737 017122       	jsr	r7,@#17122		; _.R.
012734: 021527 000077       	cmp	(r5),#77		; W#?.
012740: 001404              	beq	12752			; ..
012742: 012745 000267       	mov	#267,-(r5)		; e.7.
012746: 005245              	inc	-(r5)			; %.
012750: 000000              	halt				; ..
;
012752: 005215              	inc	(r5)			; ..
012754: 012701 000440       	mov	#440,r1			; A. .
012760: 012700 000442       	mov	#442,r0			; @.".
012764: 000277              	scc				; ?.
012766: 005010              	clr	(r0)			; ..
012770: 004737 017164       	jsr	r7,@#17164		; _.t.
012774: 005720              	tst	(r0)+			; P.
012776: 004737 017164       	jsr	r7,@#17164		; _.t.
013002: 010040              	mov	r0,-(r0)		;  .
013004: 012730 177777       	mov	#177777,@(r0)+		; X...
013010: 017011 177776       	mov	@177776(r0),(r1)	; ..~.
013014: 004737 017252       	jsr	r7,@#17252		; _.*.
013020: 005711              	tst	(r1)			; I.
013022: 004737 017252       	jsr	r7,@#17252		; _.*.
013026: 021527 000100       	cmp	(r5),#100		; W#@.
013032: 001113              	bne	13262			; K.
013034: 005215              	inc	(r5)			; ..
013036: 012702 000442       	mov	#442,r2			; B.".
013042: 012700 000440       	mov	#440,r0			; @. .
013046: 012720 177777       	mov	#177777,(r0)+		; P...
013052: 054012              	bis	-(r0),(r2)		; .X
013054: 004737 017252       	jsr	r7,@#17252		; _.*.
013060: 022227 177777       	cmp	(r2)+,#177777		; .$..
013064: 001404              	beq	13076			; ..
013066: 012745 000270       	mov	#270,-(r5)		; e.8.
013072: 005245              	inc	-(r5)			; %.
013074: 000000              	halt				; ..
;
013076: 020227 000444       	cmp	r2,#444			; . $.
013102: 001404              	beq	13114			; ..
013104: 012745 000271       	mov	#271,-(r5)		; e.9.
013110: 005245              	inc	-(r5)			; %.
013112: 000000              	halt				; ..
;
013114: 022742 000077       	cmp	#77,-(r2)		; b%?.
013120: 004737 017102       	jsr	r7,@#17102		; _.B.
013124: 022722 077777       	cmp	#77777,(r2)+		; R%..
013130: 004737 017334       	jsr	r7,@#17334		; _.\.
013134: 024227 077777       	cmp	-(r2),#77777		; .(..
013140: 004737 017252       	jsr	r7,@#17252		; _.*.
013144: 012767 052525 165272	mov	#52525,444		; w.UU:j
013152: 012767 000444 165262	mov	#444,442		; w.$.2j
013160: 012704 000430       	mov	#430,r4			; D...
013164: 012714 000432       	mov	#432,(r4)		; L...
013170: 012734 125252       	mov	#125252,@(r4)+		; \.**
013174: 057432 177776       	bis	@177776(r4),@(r2)+	; ._~.
013200: 010200              	mov	r2,r0			; ..
013202: 025027 177777       	cmp	@-(r0),#177777		; .*..
013206: 001404              	beq	13220			; ..
013210: 012745 000272       	mov	#272,-(r5)		; e.:.
013214: 005245              	inc	-(r5)			; %.
013216: 000000              	halt				; ..
;
013220: 020227 000444       	cmp	r2,#444			; . $.
013224: 001404              	beq	13236			; ..
013226: 012745 000273       	mov	#273,-(r5)		; e.;.
013232: 005245              	inc	-(r5)			; %.
013234: 000000              	halt				; ..
;
013236: 005040              	clr	-(r0)			;  .
013240: 010067 165200       	mov	r0,444			; 7..j
013244: 022020              	cmp	(r0)+,(r0)+		; .$
013246: 055070 000002       	bis	@-(r0),@2(r0)		; 8Z..
013252: 022767 000440 165160	cmp	#440,440		; w% .pj
013260: 001404              	beq	13272			; ..
013262: 012745 000274       	mov	#274,-(r5)		; e.<.
013266: 005245              	inc	-(r5)			; %.
013270: 000000              	halt				; ..
;
013272: 021527 000101       	cmp	(r5),#101		; W#A.
013276: 001122              	bne	13544			; R.
013300: 005215              	inc	(r5)			; ..
013302: 012703 000440       	mov	#440,r3			; C. .
013306: 012713 177777       	mov	#177777,(r3)		; K...
013312: 012704 000430       	mov	#430,r4			; D...
013316: 012714 000432       	mov	#432,(r4)		; L...
013322: 011334              	mov	(r3),@(r4)+		; \.
013324: 012700 000442       	mov	#442,r0			; @.".
013330: 012710 125252       	mov	#125252,(r0)		; H.**
013334: 000277              	scc				; ?.
013336: 042013              	bic	(r0)+,(r3)		; .D
013340: 004737 017102       	jsr	r7,@#17102		; _.B.
013344: 034013              	bit	-(r0),(r3)		; .8
013346: 001404              	beq	13360			; ..
013350: 012745 000275       	mov	#275,-(r5)		; e.=.
013354: 005245              	inc	-(r5)			; %.
013356: 000000              	halt				; ..
;
013360: 032713 052525       	bit	#52525,(r3)		; K5UU
013364: 004737 017102       	jsr	r7,@#17102		; _.B.
013370: 056013 000000       	bis	0(r0),(r3)		; .\..
013374: 100404              	bmi	13406			; ..
013376: 012745 000276       	mov	#276,-(r5)		; e.>.
013402: 005245              	inc	-(r5)			; %.
013404: 000000              	halt				; ..
;
013406: 012720 077777       	mov	#77777,(r0)+		; P...
013412: 010002              	mov	r0,r2			; ..
013414: 046213 177776       	bic	177776(r2),(r3)		; .L~.
013420: 004737 017272       	jsr	r7,@#17272		; _.:.
013424: 020027 000444       	cmp	r0,#444			; . $.
013430: 001404              	beq	13442			; ..
013432: 012745 000277       	mov	#277,-(r5)		; e.?.
013436: 005245              	inc	-(r5)			; %.
013440: 000000              	halt				; ..
;
013442: 010020              	mov	r0,(r0)+		; ..
013444: 000263              	invalid opcode			; 3.
013446: 045000              	bic	@-(r0),r0		; .J
013450: 004737 017206       	jsr	r7,@#17206		; _...
013454: 037413 177776       	bit	@177776(r4),(r3)	; .?~.
013460: 004737 017272       	jsr	r7,@#17272		; _.:.
013464: 012746 125252       	mov	#125252,-(r6)		; f.**
013470: 017423 177776       	mov	@177776(r4),(r3)+	; ..~.
013474: 046643 000000       	bic	0(r6),-(r3)		; #M..
013500: 022327 052525       	cmp	(r3)+,#52525		; W$UU
013504: 001404              	beq	13516			; ..
013506: 012745 000300       	mov	#300,-(r5)		; e.@.
013512: 005245              	inc	-(r5)			; %.
013514: 000000              	halt				; ..
;
013516: 012700 000446       	mov	#446,r0			; @.&.
013522: 010340              	mov	r3,-(r0)		; `.
013524: 014330              	mov	-(r3),@(r0)+		; X.
013526: 000263              	invalid opcode			; 3.
013530: 035026              	bit	@-(r0),(r6)+		; .:
013532: 004737 017206       	jsr	r7,@#17206		; _...
013536: 020627 000530       	cmp	r6,#530			; .!X.
013542: 001404              	beq	13554			; ..
013544: 012745 000301       	mov	#301,-(r5)		; e.A.
013550: 005245              	inc	-(r5)			; %.
013552: 000000              	halt				; ..
;
013554: 021527 000102       	cmp	(r5),#102		; W#B.
013560: 001404              	beq	13572			; ..
013562: 012745 000302       	mov	#302,-(r5)		; e.B.
013566: 005245              	inc	-(r5)			; %.
013570: 000000              	halt				; ..
;
013572: 005215              	inc	(r5)			; ..
013574: 012704 000442       	mov	#442,r4			; D.".
013600: 012714 077777       	mov	#77777,(r4)		; L...
013604: 000261              	sec				; 1.
013606: 005214              	inc	(r4)			; ..
013610: 004737 017334       	jsr	r7,@#17334		; _.\.
013614: 012714 177776       	mov	#177776,(r4)		; L.~.
013620: 012700 000440       	mov	#440,r0			; @. .
013624: 012710 017272       	mov	#17272,(r0)		; H.:.
013630: 005214              	inc	(r4)			; ..
013632: 004730              	jsr	r7,@(r0)+		; X.
013634: 005214              	inc	(r4)			; ..
013636: 004737 017206       	jsr	r7,@#17206		; _...
013642: 005214              	inc	(r4)			; ..
013644: 004737 017102       	jsr	r7,@#17102		; _.B.
013650: 026427 000000 000001	cmp	0(r4),#1		; .-....
013656: 001404              	beq	13670			; ..
013660: 012745 000303       	mov	#303,-(r5)		; e.C.
013664: 005245              	inc	-(r5)			; %.
013666: 000000              	halt				; ..
;
013670: 000261              	sec				; 1.
013672: 005314              	dec	(r4)			; L.
013674: 004737 017206       	jsr	r7,@#17206		; _...
013700: 005314              	dec	(r4)			; L.
013702: 004770 177776       	jsr	r7,@177776(r0)		; x.~.
013706: 012714 100000       	mov	#100000,(r4)		; L...
013712: 005314              	dec	(r4)			; L.
013714: 004737 017142       	jsr	r7,@#17142		; _.b.
013720: 005314              	dec	(r4)			; L.
013722: 004737 017102       	jsr	r7,@#17102		; _.B.
013726: 021527 000103       	cmp	(r5),#103		; W#C.
013732: 001404              	beq	13744			; ..
013734: 012745 000304       	mov	#304,-(r5)		; e.D.
013740: 005245              	inc	-(r5)			; %.
013742: 000000              	halt				; ..
;
013744: 005215              	inc	(r5)			; ..
013746: 012703 000442       	mov	#442,r3			; C.".
013752: 012713 125252       	mov	#125252,(r3)		; K.**
013756: 000277              	scc				; ?.
013760: 005163 000000       	com	0(r3)			; s...
013764: 004737 017102       	jsr	r7,@#17102		; _.B.
013770: 022713 052525       	cmp	#52525,(r3)		; K%UU
013774: 001404              	beq	14006			; ..
013776: 012745 000305       	mov	#305,-(r5)		; e.E.
014002: 005245              	inc	-(r5)			; %.
014004: 000000              	halt				; ..
;
014006: 000277              	scc				; ?.
014010: 005123              	com	(r3)+			; S.
014012: 004737 017272       	jsr	r7,@#17272		; _.:.
014016: 022743 125252       	cmp	#125252,-(r3)		; c%**
014022: 001404              	beq	14034			; ..
014024: 012745 000306       	mov	#306,-(r5)		; e.F.
014030: 005245              	inc	-(r5)			; %.
014032: 000000              	halt				; ..
;
014034: 010300              	mov	r3,r0			; @.
014036: 012710 177777       	mov	#177777,(r0)		; H...
014042: 000277              	scc				; ?.
014044: 005110              	com	(r0)			; H.
014046: 004737 017206       	jsr	r7,@#17206		; _...
014052: 021527 000104       	cmp	(r5),#104		; W#D.
014056: 001033              	bne	14146			; ..
014060: 005215              	inc	(r5)			; ..
014062: 012704 000442       	mov	#442,r4			; D.".
014066: 012724 000001       	mov	#1,(r4)+		; T...
014072: 010402              	mov	r4,r2			; ..
014074: 012762 100000 000000	mov	#100000,0(r2)		; r.....
014102: 005444              	neg	-(r4)			; $.
014104: 004737 017272       	jsr	r7,@#17272		; _.:.
014110: 022724 177777       	cmp	#177777,(r4)+		; T%..
014114: 001404              	beq	14126			; ..
014116: 012745 000307       	mov	#307,-(r5)		; e.G.
014122: 005245              	inc	-(r5)			; %.
014124: 000000              	halt				; ..
;
014126: 016444 000000       	mov	0(r4),-(r4)		; $...
014132: 005414              	neg	(r4)			; ..
014134: 004737 017334       	jsr	r7,@#17334		; _.\.
014140: 026214 000000       	cmp	0(r2),(r4)		; .,..
014144: 001404              	beq	14156			; ..
014146: 012745 000310       	mov	#310,-(r5)		; e.H.
014152: 005245              	inc	-(r5)			; %.
014154: 000000              	halt				; ..
;
014156: 021527 000105       	cmp	(r5),#105		; W#E.
014162: 001032              	bne	14250			; ..
014164: 005215              	inc	(r5)			; ..
014166: 012701 000444       	mov	#444,r1			; A.$.
014172: 012711 020000       	mov	#20000,(r1)		; I.. 
014176: 000257              	ccc				; /.
014200: 006121              	rol	(r1)+			; Q.
014202: 006141              	rol	-(r1)			; a.
014204: 004737 017314       	jsr	r7,@#17314		; _.L.
014210: 022711 100000       	cmp	#100000,(r1)		; I%..
014214: 001404              	beq	14226			; ..
014216: 012745 000311       	mov	#311,-(r5)		; e.I.
014222: 005245              	inc	-(r5)			; %.
014224: 000000              	halt				; ..
;
014226: 006161 000000       	rol	0(r1)			; q...
014232: 004737 017230       	jsr	r7,@#17230		; _...
014236: 010102              	mov	r1,r2			; B.
014240: 006112              	rol	(r2)			; J.
014242: 022711 000001       	cmp	#1,(r1)			; I%..
014246: 001404              	beq	14260			; ..
014250: 012745 000312       	mov	#312,-(r5)		; e.J.
014254: 005245              	inc	-(r5)			; %.
014256: 000000              	halt				; ..
;
014260: 021527 000106       	cmp	(r5),#106		; W#F.
014264: 001030              	bne	14346			; ..
014266: 005215              	inc	(r5)			; ..
014270: 012702 000444       	mov	#444,r2			; B.$.
014274: 012712 000004       	mov	#4,(r2)			; J...
014300: 000257              	ccc				; /.
014302: 006012              	ror	(r2)			; ..
014304: 006012              	ror	(r2)			; ..
014306: 022712 000001       	cmp	#1,(r2)			; J%..
014312: 001404              	beq	14324			; ..
014314: 012745 000313       	mov	#313,-(r5)		; e.K.
014320: 005245              	inc	-(r5)			; %.
014322: 000000              	halt				; ..
;
014324: 006012              	ror	(r2)			; ..
014326: 004737 017230       	jsr	r7,@#17230		; _...
014332: 006012              	ror	(r2)			; ..
014334: 004737 017314       	jsr	r7,@#17314		; _.L.
014340: 022712 100000       	cmp	#100000,(r2)		; J%..
014344: 001404              	beq	14356			; ..
014346: 012745 000314       	mov	#314,-(r5)		; e.L.
014352: 005245              	inc	-(r5)			; %.
014354: 000000              	halt				; ..
;
014356: 021527 000107       	cmp	(r5),#107		; W#G.
014362: 001404              	beq	14374			; ..
014364: 012745 000315       	mov	#315,-(r5)		; e.M.
014370: 005245              	inc	-(r5)			; %.
014372: 000000              	halt				; ..
;
014374: 005215              	inc	(r5)			; ..
014376: 012703 000444       	mov	#444,r3			; C.$.
014402: 012713 020000       	mov	#20000,(r3)		; K.. 
014406: 000257              	ccc				; /.
014410: 006313              	asl	(r3)			; K.
014412: 006313              	asl	(r3)			; K.
014414: 004737 017314       	jsr	r7,@#17314		; _.L.
014420: 022713 100000       	cmp	#100000,(r3)		; K%..
014424: 001404              	beq	14436			; ..
014426: 012745 000316       	mov	#316,-(r5)		; e.N.
014432: 005245              	inc	-(r5)			; %.
014434: 000000              	halt				; ..
;
014436: 006313              	asl	(r3)			; K.
014440: 004737 017230       	jsr	r7,@#17230		; _...
014444: 006313              	asl	(r3)			; K.
014446: 004737 017164       	jsr	r7,@#17164		; _.t.
014452: 021527 000110       	cmp	(r5),#110		; W#H.
014456: 001040              	bne	14560			;  .
014460: 005215              	inc	(r5)			; ..
014462: 012704 000444       	mov	#444,r4			; D.$.
014466: 012703 000440       	mov	#440,r3			; C. .
014472: 012714 000004       	mov	#4,(r4)			; L...
014476: 000257              	ccc				; /.
014500: 006214              	asr	(r4)			; ..
014502: 006214              	asr	(r4)			; ..
014504: 022714 000001       	cmp	#1,(r4)			; L%..
014510: 001404              	beq	14522			; ..
014512: 012745 000317       	mov	#317,-(r5)		; e.O.
014516: 005245              	inc	-(r5)			; %.
014520: 000000              	halt				; ..
;
014522: 006214              	asr	(r4)			; ..
014524: 004737 017230       	jsr	r7,@#17230		; _...
014530: 006214              	asr	(r4)			; ..
014532: 004737 017164       	jsr	r7,@#17164		; _.t.
014536: 012713 100002       	mov	#100002,(r3)		; K...
014542: 006213              	asr	(r3)			; ..
014544: 006213              	asr	(r3)			; ..
014546: 004737 017272       	jsr	r7,@#17272		; _.:.
014552: 022713 160000       	cmp	#160000,(r3)		; K%.`
014556: 001404              	beq	14570			; ..
014560: 012745 000320       	mov	#320,-(r5)		; e.P.
014564: 005245              	inc	-(r5)			; %.
014566: 000000              	halt				; ..
;
014570: 021527 000111       	cmp	(r5),#111		; W#I.
014574: 001404              	beq	14606			; ..
014576: 012745 000321       	mov	#321,-(r5)		; e.Q.
014602: 005245              	inc	-(r5)			; %.
014604: 000000              	halt				; ..
;
014606: 005215              	inc	(r5)			; ..
014610: 012700 000440       	mov	#440,r0			; @. .
014614: 005010              	clr	(r0)			; ..
014616: 000257              	ccc				; /.
014620: 005510              	adc	(r0)			; H.
014622: 004737 017164       	jsr	r7,@#17164		; _.t.
014626: 000261              	sec				; 1.
014630: 005510              	adc	(r0)			; H.
014632: 000261              	sec				; 1.
014634: 005510              	adc	(r0)			; H.
014636: 004737 017062       	jsr	r7,@#17062		; _.2.
014642: 022710 000002       	cmp	#2,(r0)			; H%..
014646: 001404              	beq	14660			; ..
014650: 012745 000322       	mov	#322,-(r5)		; e.R.
014654: 005245              	inc	-(r5)			; %.
014656: 000000              	halt				; ..
;
014660: 012710 077777       	mov	#77777,(r0)		; H...
014664: 000261              	sec				; 1.
014666: 005510              	adc	(r0)			; H.
014670: 004737 017314       	jsr	r7,@#17314		; _.L.
014674: 022710 100000       	cmp	#100000,(r0)		; H%..
014700: 001404              	beq	14712			; ..
014702: 012745 000323       	mov	#323,-(r5)		; e.S.
014706: 005245              	inc	-(r5)			; %.
014710: 000000              	halt				; ..
;
014712: 012710 177777       	mov	#177777,(r0)		; H...
014716: 000261              	sec				; 1.
014720: 005510              	adc	(r0)			; H.
014722: 004737 017206       	jsr	r7,@#17206		; _...
014726: 021527 000112       	cmp	(r5),#112		; W#J.
014732: 001404              	beq	14744			; ..
014734: 012745 000324       	mov	#324,-(r5)		; e.T.
014740: 005245              	inc	-(r5)			; %.
014742: 000000              	halt				; ..
;
014744: 005215              	inc	(r5)			; ..
014746: 012701 000440       	mov	#440,r1			; A. .
014752: 012711 000003       	mov	#3,(r1)			; I...
014756: 000257              	ccc				; /.
014760: 005611              	sbc	(r1)			; ..
014762: 004737 017062       	jsr	r7,@#17062		; _.2.
014766: 022711 000003       	cmp	#3,(r1)			; I%..
014772: 001404              	beq	15004			; ..
014774: 012745 000325       	mov	#325,-(r5)		; e.U.
015000: 005245              	inc	-(r5)			; %.
015002: 000000              	halt				; ..
;
015004: 000261              	sec				; 1.
015006: 005611              	sbc	(r1)			; ..
015010: 000261              	sec				; 1.
015012: 005611              	sbc	(r1)			; ..
015014: 004737 017062       	jsr	r7,@#17062		; _.2.
015020: 022711 000001       	cmp	#1,(r1)			; I%..
015024: 001404              	beq	15036			; ..
015026: 012745 000326       	mov	#326,-(r5)		; e.V.
015032: 005245              	inc	-(r5)			; %.
015034: 000000              	halt				; ..
;
015036: 000261              	sec				; 1.
015040: 005611              	sbc	(r1)			; ..
015042: 004737 017164       	jsr	r7,@#17164		; _.t.
015046: 000261              	sec				; 1.
015050: 005611              	sbc	(r1)			; ..
015052: 004737 017272       	jsr	r7,@#17272		; _.:.
015056: 022711 177777       	cmp	#177777,(r1)		; I%..
015062: 001404              	beq	15074			; ..
015064: 012745 000327       	mov	#327,-(r5)		; e.W.
015070: 005245              	inc	-(r5)			; %.
015072: 000000              	halt				; ..
;
015074: 012711 100000       	mov	#100000,(r1)		; I...
015100: 000261              	sec				; 1.
015102: 005611              	sbc	(r1)			; ..
015104: 004737 017122       	jsr	r7,@#17122		; _.R.
015110: 021527 000113       	cmp	(r5),#113		; W#K.
015114: 001026              	bne	15172			; ..
015116: 005215              	inc	(r5)			; ..
015120: 012702 000442       	mov	#442,r2			; B.".
015124: 005012              	clr	(r2)			; ..
015126: 000277              	scc				; ?.
015130: 000254              	invalid opcode			; ,.
015132: 006712              	sxt	(r2)			; J.
015134: 004737 017206       	jsr	r7,@#17206		; _...
015140: 005712              	tst	(r2)			; J.
015142: 001404              	beq	15154			; ..
015144: 012745 000330       	mov	#330,-(r5)		; e.X.
015150: 005245              	inc	-(r5)			; %.
015152: 000000              	halt				; ..
;
015154: 000273              	invalid opcode			; ;.
015156: 006712              	sxt	(r2)			; J.
015160: 004737 017272       	jsr	r7,@#17272		; _.:.
015164: 022712 177777       	cmp	#177777,(r2)		; J%..
015170: 001404              	beq	15202			; ..
015172: 012745 000331       	mov	#331,-(r5)		; e.Y.
015176: 005245              	inc	-(r5)			; %.
015200: 000000              	halt				; ..
;
015202: 021527 000114       	cmp	(r5),#114		; W#L.
015206: 001034              	bne	15300			; ..
015210: 005215              	inc	(r5)			; ..
015212: 012703 000444       	mov	#444,r3			; C.$.
015216: 012713 125125       	mov	#125125,(r3)		; K.U*
015222: 000277              	scc				; ?.
015224: 000250              	cln				; (.
015226: 000313              	swab	(r3)			; K.
015230: 004737 017252       	jsr	r7,@#17252		; _.*.
015234: 022713 052652       	cmp	#52652,(r3)		; K%*U
015240: 001404              	beq	15252			; ..
015242: 012745 000332       	mov	#332,-(r5)		; e.Z.
015246: 005245              	inc	-(r5)			; %.
015250: 000000              	halt				; ..
;
015252: 012713 000377       	mov	#377,(r3)		; K...
015256: 000277              	scc				; ?.
015260: 000244              	clz				; $.
015262: 000363 000000       	swab	0(r3)			; s...
015266: 004737 017164       	jsr	r7,@#17164		; _.t.
015272: 022713 177400       	cmp	#177400,(r3)		; K%..
015276: 001404              	beq	15310			; ..
015300: 012745 000333       	mov	#333,-(r5)		; e.[.
015304: 005245              	inc	-(r5)			; %.
015306: 000000              	halt				; ..
;
015310: 021527 000115       	cmp	(r5),#115		; W#M.
015314: 001041              	bne	15420			; !.
015316: 005215              	inc	(r5)			; ..
015320: 012704 177777       	mov	#177777,r4		; D...
015324: 012767 177777 163110	mov	#177777,442		; w...Hf
015332: 000277              	scc				; ?.
015334: 074467 163102       	xor	442,r4			; 7yBf
015340: 004737 017206       	jsr	r7,@#17206		; _...
015344: 012767 077777 163070	mov	#77777,442		; w...8f
015352: 012700 000442       	mov	#442,r0			; @.".
015356: 000263              	invalid opcode			; 3.
015360: 000244              	clz				; $.
015362: 074410              	xor	(r0),r4			; .y
015364: 004737 017272       	jsr	r7,@#17272		; _.:.
015370: 012701 125252       	mov	#125252,r1		; A.**
015374: 012720 052525       	mov	#52525,(r0)+		; P.UU
015400: 000277              	scc				; ?.
015402: 074140              	xor	-(r0),r1		; `x
015404: 004737 017272       	jsr	r7,@#17272		; _.:.
015410: 022737 177777 000442	cmp	#177777,@#442		; _%..".
015416: 001404              	beq	15430			; ..
015420: 012745 000334       	mov	#334,-(r5)		; e.\.
015424: 005245              	inc	-(r5)			; %.
015426: 000000              	halt				; ..
;
015430: 021527 000116       	cmp	(r5),#116		; W#N.
015434: 001133              	bne	15724			; [.
015436: 005215              	inc	(r5)			; ..
015440: 012700 000444       	mov	#444,r0			; @.$.
015444: 012701 000440       	mov	#440,r1			; A. .
015450: 012767 021421 162766	mov	#21421,444		; w..#ve
015456: 011011              	mov	(r0),(r1)		; ..
015460: 061011              	add	(r0),(r1)		; .b
015462: 004737 017062       	jsr	r7,@#17062		; _.2.
015466: 022767 043042 162744	cmp	#43042,440		; w%"Fde
015474: 001404              	beq	15506			; ..
015476: 012745 000335       	mov	#335,-(r5)		; e.].
015502: 005245              	inc	-(r5)			; %.
015504: 000000              	halt				; ..
;
015506: 005010              	clr	(r0)			; ..
015510: 060020              	add	r0,(r0)+		; .`
015512: 024027 000444       	cmp	-(r0),#444		; .($.
015516: 001404              	beq	15530			; ..
015520: 012745 000336       	mov	#336,-(r5)		; e.^.
015524: 005245              	inc	-(r5)			; %.
015526: 000000              	halt				; ..
;
015530: 012767 156357 162706	mov	#156357,444		; w.o\Fe
015536: 012011              	mov	(r0)+,(r1)		; ..
015540: 064011              	add	-(r0),(r1)		; .h
015542: 004737 017272       	jsr	r7,@#17272		; _.:.
015546: 022767 134736 162664	cmp	#134736,440		; w%^94e
015554: 001404              	beq	15566			; ..
015556: 012745 000337       	mov	#337,-(r5)		; e._.
015562: 005245              	inc	-(r5)			; %.
015564: 000000              	halt				; ..
;
015566: 012767 100000 162650	mov	#100000,444		; w...(e
015574: 011061 000000       	mov	(r0),0(r1)		; 1...
015600: 066011 000000       	add	0(r0),(r1)		; .l..
015604: 004737 017230       	jsr	r7,@#17230		; _...
015610: 012767 021421 162624	mov	#21421,442		; w..#.e
015616: 012760 000442 000000	mov	#442,0(r0)		; p."...
015624: 012711 156357       	mov	#156357,(r1)		; I.o\
015630: 010004              	mov	r0,r4			; ..
015632: 067411 000000       	add	@0(r4),(r1)		; .o..
015636: 004737 017206       	jsr	r7,@#17206		; _...
015642: 005430              	neg	@(r0)+			; ..
015644: 012746 021421       	mov	#21421,-(r6)		; f..#
015650: 065066 000000       	add	@-(r0),0(r6)		; 6j..
015654: 004737 017206       	jsr	r7,@#17206		; _...
015660: 005726              	tst	(r6)+			; V.
015662: 001404              	beq	15674			; ..
015664: 012745 000340       	mov	#340,-(r5)		; e.`.
015670: 005245              	inc	-(r5)			; %.
015672: 000000              	halt				; ..
;
015674: 012767 137777 162542	mov	#137777,444		; w..?be
015702: 062767 137777 162534	add	#137777,444		; we.?\e
015710: 004737 017142       	jsr	r7,@#17142		; _.b.
015714: 022767 077776 162522	cmp	#77776,444		; w%~.Re
015722: 001404              	beq	15734			; ..
015724: 012745 000341       	mov	#341,-(r5)		; e.a.
015730: 005245              	inc	-(r5)			; %.
015732: 000000              	halt				; ..
;
015734: 021527 000117       	cmp	(r5),#117		; W#O.
015740: 001100              	bne	16142			; @.
015742: 005215              	inc	(r5)			; ..
015744: 012702 000440       	mov	#440,r2			; B. .
015750: 012703 000442       	mov	#442,r3			; C.".
015754: 012767 021421 162456	mov	#21421,440		; w..#.e
015762: 012767 156357 162452	mov	#156357,442		; w.o\*e
015770: 161213              	sub	(r2),(r3)		; .b
015772: 004737 017252       	jsr	r7,@#17252		; _.*.
015776: 022767 134736 162436	cmp	#134736,442		; w%^9.e
016004: 001404              	beq	16016			; ..
016006: 012745 000342       	mov	#342,-(r5)		; e.b.
016012: 005245              	inc	-(r5)			; %.
016014: 000000              	halt				; ..
;
016016: 012767 021421 162416	mov	#21421,442		; w..#.e
016024: 161213              	sub	(r2),(r3)		; .b
016026: 001404              	beq	16040			; ..
016030: 012745 000343       	mov	#343,-(r5)		; e.c.
016034: 005245              	inc	-(r5)			; %.
016036: 000000              	halt				; ..
;
016040: 012767 177777 162374	mov	#177777,442		; w...|d
016046: 012767 077777 162364	mov	#77777,440		; w...td
016054: 161312              	sub	(r3),(r2)		; Jb
016056: 004737 017334       	jsr	r7,@#17334		; _.\.
016062: 022767 100000 162350	cmp	#100000,440		; w%..hd
016070: 001404              	beq	16102			; ..
016072: 012745 000344       	mov	#344,-(r5)		; e.d.
016076: 005245              	inc	-(r5)			; %.
016100: 000000              	halt				; ..
;
016102: 012712 177777       	mov	#177777,(r2)		; J...
016106: 161312              	sub	(r3),(r2)		; Jb
016110: 004737 017164       	jsr	r7,@#17164		; _.t.
016114: 012767 077777 162316	mov	#77777,440		; w...Nd
016122: 162767 077777 162310	sub	#77777,440		; we..Hd
016130: 004737 017164       	jsr	r7,@#17164		; _.t.
016134: 005767 162300       	tst	440			; w.@d
016140: 001404              	beq	16152			; ..
016142: 012745 000345       	mov	#345,-(r5)		; e.e.
016146: 005245              	inc	-(r5)			; %.
016150: 000000              	halt				; ..
;
016152: 021527 000120       	cmp	(r5),#120		; W#P.
016156: 001042              	bne	16264			; ".
016160: 005215              	inc	(r5)			; ..
016162: 012700 000012       	mov	#12,r0			; @...
016166: 005001              	clr	r1			; ..
016170: 005201              	inc	r1			; ..
016172: 020127 000012       	cmp	r1,#12			; W ..
016176: 003404              	ble	16210			; ..
016200: 012745 000346       	mov	#346,-(r5)		; e.f.
016204: 005245              	inc	-(r5)			; %.
016206: 000000              	halt				; ..
;
016210: 000277              	scc				; ?.
016212: 077012              	sob	r0,16170		; .~
016214: 004737 017354       	jsr	r7,@#17354		; _.l.
016220: 005700              	tst	r0			; @.
016222: 001404              	beq	16234			; ..
016224: 012745 000347       	mov	#347,-(r5)		; e.g.
016230: 005245              	inc	-(r5)			; %.
016232: 000000              	halt				; ..
;
016234: 022701 000012       	cmp	#12,r1			; A%..
016240: 001404              	beq	16252			; ..
016242: 012745 000350       	mov	#350,-(r5)		; e.h.
016246: 005245              	inc	-(r5)			; %.
016250: 000000              	halt				; ..
;
016252: 012704 000010       	mov	#10,r4			; D...
016256: 077401              	sob	r4,16256		; ..
016260: 005704              	tst	r4			; D.
016262: 001404              	beq	16274			; ..
016264: 012745 000351       	mov	#351,-(r5)		; e.i.
016270: 005245              	inc	-(r5)			; %.
016272: 000000              	halt				; ..
;
016274: 021527 000121       	cmp	(r5),#121		; W#Q.
016300: 001042              	bne	16406			; ".
016302: 005215              	inc	(r5)			; ..
016304: 012700 000440       	mov	#440,r0			; @. .
016310: 012701 000442       	mov	#442,r1			; A.".
016314: 012711 177777       	mov	#177777,(r1)		; I...
016320: 005010              	clr	(r0)			; ..
016322: 106410              	invalid opcode			; ..
016324: 004737 017062       	jsr	r7,@#17062		; _.2.
016330: 106711              	invalid opcode			; I.
016332: 004737 017164       	jsr	r7,@#17164		; _.t.
016336: 022711 177400       	cmp	#177400,(r1)		; I%..
016342: 001404              	beq	16354			; ..
016344: 012745 000352       	mov	#352,-(r5)		; e.j.
016350: 005245              	inc	-(r5)			; %.
016352: 000000              	halt				; ..
;
016354: 005011              	clr	(r1)			; ..
016356: 106427              	invalid opcode			; ..
016360: 000377 004737       	swab	@23323			; .._.
016364: 017354 106767       	mov	@106767(r3),@-(r4)	; l.w.
016370: 162050              	sub	(r0)+,@-(r0)		; (d
016372: 004737 017272       	jsr	r7,@#17272		; _.:.
016376: 022767 000357 162036	cmp	#357,442		; w%o..d
016404: 001404              	beq	16416			; ..
016406: 012745 000353       	mov	#353,-(r5)		; e.k.
016412: 005245              	inc	-(r5)			; %.
016414: 000000              	halt				; ..
;
016416: 021527 000122       	cmp	(r5),#122		; W#R.
016422: 001124              	bne	16674			; T.
016424: 005215              	inc	(r5)			; ..
016426: 005000              	clr	r0			; ..
016430: 000277              	scc				; ?.
016432: 112700 000200       	movb	#200,r0			; @...
016436: 004737 017272       	jsr	r7,@#17272		; _.:.
016442: 022700 177600       	cmp	#177600,r0		; @%..
016446: 001404              	beq	16460			; ..
016450: 012745 000354       	mov	#354,-(r5)		; e.l.
016454: 005245              	inc	-(r5)			; %.
016456: 000000              	halt				; ..
;
016460: 000277              	scc				; ?.
016462: 012700 177777       	mov	#177777,r0		; @...
016466: 112700 000000       	movb	#0,r0			; @...
016472: 004737 017206       	jsr	r7,@#17206		; _...
016476: 005700              	tst	r0			; @.
016500: 001404              	beq	16512			; ..
016502: 012745 000355       	mov	#355,-(r5)		; e.m.
016506: 005245              	inc	-(r5)			; %.
016510: 000000              	halt				; ..
;
016512: 012704 000444       	mov	#444,r4			; D.$.
016516: 012714 000377       	mov	#377,(r4)		; L...
016522: 012706 000526       	mov	#526,r6			; F.V.
016526: 116426 000000       	movb	0(r4),(r6)+		; ....
016532: 022706 000530       	cmp	#530,r6			; F%X.
016536: 001404              	beq	16550			; ..
016540: 012745 000356       	mov	#356,-(r5)		; e.n.
016544: 005245              	inc	-(r5)			; %.
016546: 000000              	halt				; ..
;
016550: 124627 000377       	cmpb	-(r6),#377		; .)..
016554: 001404              	beq	16566			; ..
016556: 012745 000357       	mov	#357,-(r5)		; e.o.
016562: 005245              	inc	-(r5)			; %.
016564: 000000              	halt				; ..
;
016566: 022706 000526       	cmp	#526,r6			; F%V.
016572: 001404              	beq	16604			; ..
016574: 012745 000360       	mov	#360,-(r5)		; e.p.
016600: 005245              	inc	-(r5)			; %.
016602: 000000              	halt				; ..
;
016604: 016467 000000 161626	mov	0(r4),440		; 7....c
016612: 005726              	tst	(r6)+			; V.
016614: 000277              	scc				; ?.
016616: 114667 161617       	movb	-(r6),441		; 7..c
016622: 004737 017272       	jsr	r7,@#17272		; _.:.
016626: 022767 177777 161604	cmp	#177777,440		; w%...c
016634: 001404              	beq	16646			; ..
016636: 012745 000361       	mov	#361,-(r5)		; e.q.
016642: 005245              	inc	-(r5)			; %.
016644: 000000              	halt				; ..
;
016646: 005067 161566       	clr	440			; 7.vc
016652: 000241              	clc				; !.
016654: 105167 161561       	comb	441			; w.qc
016660: 004737 017272       	jsr	r7,@#17272		; _.:.
016664: 022767 177400 161546	cmp	#177400,440		; w%..fc
016672: 001404              	beq	16704			; ..
016674: 012745 000362       	mov	#362,-(r5)		; e.r.
016700: 005245              	inc	-(r5)			; %.
016702: 000000              	halt				; ..
;
016704: 021527 000123       	cmp	(r5),#123		; W#S.
016710: 001404              	beq	16722			; ..
016712: 012745 000363       	mov	#363,-(r5)		; e.s.
016716: 005245              	inc	-(r5)			; %.
016720: 000000              	halt				; ..
;
016722: 005267 161460       	inc	406			; 7.0c
016726: 126727 161454 000001	cmpb	406,#1			; W-,c..
016734: 001002              	bne	16742			; ..
016736: 000004              	iot				; ..
016740: 000454              	br	17072			; ,.
;
016742: 013700 000042       	mov	@#42,r0			; @.".
016746: 001404              	beq	16760			; ..
016750: 004710              	jsr	r7,(r0)			; H.
016752: 000240              	nop				;  .
016754: 000240              	nop				;  .
016756: 000240              	nop				;  .
016760: 005067 161420       	clr	404			; 7..c
016764: 000167 161540       	jmp	530			; w.`c
;
016770: 012737 017000 000024	mov	#17000,@#24		; _.....
016776: 000000              	halt				; ..
;
017000: 012706 000530       	mov	#530,r6			; F.X.
017004: 012737 016770 000024	mov	#16770,@#24		; _.x...
017012: 000004              	iot				; ..
017014: 000470              	br	17176			; 8.
;
017016: 000760              	br	16760			; p.
;
017020: 132737 000040 000421	bitb	#40,@#421		; _5 ...
017026: 001012              	bne	17054			; ..
017030: 017603 000000       	mov	@0(r6),r3		; ....
017034: 105713              	tstb	(r3)			; K.
017036: 001406              	beq	17054			; ..
017040: 105777 161402       	tstb	@446			; ...c
017044: 100375              	bpl	17040			; }.
017046: 112377 161376       	movb	(r3)+,@450		; ..~b
017052: 000770              	br	17034			; x.
;
017054: 062716 000002       	add	#2,(r6)			; Ne..
017060: 000006              	rtt				; ..
;
017062: 003402              	ble	17070			; ..
017064: 100401              	bmi	17070			; ..
017066: 103004              	bcc	17100			; ..
017070: 012745 000364       	mov	#364,-(r5)		; e.t.
017074: 005245              	inc	-(r5)			; %.
017076: 000000              	halt				; ..
;
017100: 000207              	rts	r7			; ..
;
017102: 003402              	ble	17110			; ..
017104: 100401              	bmi	17110			; ..
017106: 103404              	bcs	17120			; ..
017110: 012745 000365       	mov	#365,-(r5)		; e.u.
017114: 005245              	inc	-(r5)			; %.
017116: 000000              	halt				; ..
;
017120: 000207              	rts	r7			; ..
;
017122: 100402              	bmi	17130			; ..
017124: 101401              	blos	17130			; ..
017126: 102404              	bvs	17140			; ..
017130: 012745 000366       	mov	#366,-(r5)		; e.v.
017134: 005245              	inc	-(r5)			; %.
017136: 000000              	halt				; ..
;
017140: 000207              	rts	r7			; ..
;
017142: 100403              	bmi	17152			; ..
017144: 001402              	beq	17152			; ..
017146: 102001              	bvc	17152			; ..
017150: 103404              	bcs	17162			; ..
017152: 012745 000367       	mov	#367,-(r5)		; e.w.
017156: 005245              	inc	-(r5)			; %.
017160: 000000              	halt				; ..
;
017162: 000207              	rts	r7			; ..
;
017164: 100403              	bmi	17174			; ..
017166: 001002              	bne	17174			; ..
017170: 102401              	bvs	17174			; ..
017172: 103004              	bcc	17204			; ..
017174: 012745 000370       	mov	#370,-(r5)		; e.x.
017200: 005245              	inc	-(r5)			; %.
017202: 000000              	halt				; ..
;
017204: 000207              	rts	r7			; ..
;
017206: 100403              	bmi	17216			; ..
017210: 001002              	bne	17216			; ..
017212: 102401              	bvs	17216			; ..
017214: 103404              	bcs	17226			; ..
017216: 012745 000371       	mov	#371,-(r5)		; e.y.
017222: 005245              	inc	-(r5)			; %.
017224: 000000              	halt				; ..
;
017226: 000207              	rts	r7			; ..
;
017230: 100403              	bmi	17240			; ..
017232: 001002              	bne	17240			; ..
017234: 102001              	bvc	17240			; ..
017236: 103404              	bcs	17250			; ..
017240: 012745 000372       	mov	#372,-(r5)		; e.z.
017244: 005245              	inc	-(r5)			; %.
017246: 000000              	halt				; ..
;
017250: 000207              	rts	r7			; ..
;
017252: 100002              	bpl	17260			; ..
017254: 101401              	blos	17260			; ..
017256: 102004              	bvc	17270			; ..
017260: 012745 000373       	mov	#373,-(r5)		; e.{.
017264: 005245              	inc	-(r5)			; %.
017266: 000000              	halt				; ..
;
017270: 000207              	rts	r7			; ..
;
017272: 100003              	bpl	17302			; ..
017274: 001402              	beq	17302			; ..
017276: 102401              	bvs	17302			; ..
017300: 103404              	bcs	17312			; ..
017302: 012745 000374       	mov	#374,-(r5)		; e.|.
017306: 005245              	inc	-(r5)			; %.
017310: 000000              	halt				; ..
;
017312: 000207              	rts	r7			; ..
;
017314: 100002              	bpl	17322			; ..
017316: 101401              	blos	17322			; ..
017320: 102404              	bvs	17332			; ..
017322: 012745 000375       	mov	#375,-(r5)		; e.}.
017326: 005245              	inc	-(r5)			; %.
017330: 000000              	halt				; ..
;
017332: 000207              	rts	r7			; ..
;
017334: 100002              	bpl	17342			; ..
017336: 003401              	ble	17342			; ..
017340: 103404              	bcs	17352			; ..
017342: 012745 000376       	mov	#376,-(r5)		; e.~.
017346: 005245              	inc	-(r5)			; %.
017350: 000000              	halt				; ..
;
017352: 000207              	rts	r7			; ..
;
017354: 100003              	bpl	17364			; ..
017356: 001002              	bne	17364			; ..
017360: 102001              	bvc	17364			; ..
017362: 103404              	bcs	17374			; ..
017364: 012745 000377       	mov	#377,-(r5)		; e...
017370: 005245              	inc	-(r5)			; %.
017372: 000000              	halt				; ..
;
017374: 000207              	rts	r7			; ..
;
017376: 000000              	halt				; ..
017400: 000000              	halt				; ..
017402: 000000              	halt				; ..
017404: 000000              	halt				; ..
017406: 000000              	halt				; ..
017410: 000000              	halt				; ..
017412: 000000              	halt				; ..
017414: 000000              	halt				; ..
017416: 000000              	halt				; ..
017420: 000000              	halt				; ..
017422: 000000              	halt				; ..
017424: 000000              	halt				; ..
017426: 000000              	halt				; ..
017430: 000000              	halt				; ..
017432: 000000              	halt				; ..
017434: 000000              	halt				; ..
017436: 000000              	halt				; ..
017440: 000000              	halt				; ..
017442: 000000              	halt				; ..
017444: 000000              	halt				; ..
017446: 000000              	halt				; ..
017450: 000000              	halt				; ..
017452: 000000              	halt				; ..
017454: 000000              	halt				; ..
017456: 000000              	halt				; ..
017460: 000000              	halt				; ..
017462: 000000              	halt				; ..
017464: 000000              	halt				; ..
017466: 000000              	halt				; ..
017470: 000000              	halt				; ..
017472: 000000              	halt				; ..
017474: 000000              	halt				; ..
017476: 000000              	halt				; ..
017500: 000000              	halt				; ..
017502: 000000              	halt				; ..
017504: 000000              	halt				; ..
017506: 000000              	halt				; ..
017510: 000000              	halt				; ..
017512: 000000              	halt				; ..
017514: 000000              	halt				; ..
017516: 000000              	halt				; ..
017520: 000000              	halt				; ..
017522: 000000              	halt				; ..
017524: 000000              	halt				; ..
017526: 000000              	halt				; ..
017530: 000000              	halt				; ..
017532: 000000              	halt				; ..
017534: 000000              	halt				; ..
017536: 000000              	halt				; ..
017540: 000000              	halt				; ..
017542: 000000              	halt				; ..
017544: 000000              	halt				; ..
017546: 000000              	halt				; ..
017550: 000000              	halt				; ..
017552: 000000              	halt				; ..
017554: 000000              	halt				; ..
017556: 000000              	halt				; ..
017560: 000000              	halt				; ..
017562: 000000              	halt				; ..
017564: 000000              	halt				; ..
017566: 000000              	halt				; ..
017570: 000000              	halt				; ..
017572: 000000              	halt				; ..
017574: 000000              	halt				; ..
017576: 000000              	halt				; ..
017600: 000000              	halt				; ..
017602: 000000              	halt				; ..
017604: 000000              	halt				; ..
017606: 000000              	halt				; ..
017610: 000000              	halt				; ..
017612: 000000              	halt				; ..
017614: 000000              	halt				; ..
017616: 000000              	halt				; ..
017620: 000000              	halt				; ..
017622: 000000              	halt				; ..
017624: 000000              	halt				; ..
017626: 000000              	halt				; ..
017630: 000000              	halt				; ..
017632: 000000              	halt				; ..
017634: 000000              	halt				; ..
017636: 000000              	halt				; ..
017640: 000000              	halt				; ..
017642: 000000              	halt				; ..
017644: 000000              	halt				; ..
017646: 000000              	halt				; ..
017650: 000000              	halt				; ..
017652: 000000              	halt				; ..
017654: 000000              	halt				; ..
017656: 000000              	halt				; ..
017660: 000000              	halt				; ..
017662: 000000              	halt				; ..
017664: 000000              	halt				; ..
017666: 000000              	halt				; ..
017670: 000000              	halt				; ..
017672: 000000              	halt				; ..
017674: 000000              	halt				; ..
017676: 000000              	halt				; ..
017700: 000000              	halt				; ..
017702: 000000              	halt				; ..
017704: 000000              	halt				; ..
017706: 000000              	halt				; ..
017710: 000000              	halt				; ..
017712: 000000              	halt				; ..
017714: 000000              	halt				; ..
017716: 000000              	halt				; ..
017720: 000000              	halt				; ..
017722: 000000              	halt				; ..
017724: 000000              	halt				; ..
017726: 000000              	halt				; ..
017730: 000000              	halt				; ..
017732: 000000              	halt				; ..
017734: 000000              	halt				; ..
017736: 000000              	halt				; ..
017740: 000000              	halt				; ..
017742: 000000              	halt				; ..
017744: 000000              	halt				; ..
017746: 000000              	halt				; ..
017750: 000000              	halt				; ..
017752: 000000              	halt				; ..
017754: 000000              	halt				; ..
017756: 000000              	halt				; ..
017760: 000000              	halt				; ..
017762: 000000              	halt				; ..
017764: 000000              	halt				; ..
017766: 000000              	halt				; ..
017770: 000000              	halt				; ..
017772: 000000              	halt				; ..
017774: 000000              	halt				; ..
017776: 000000              	halt				; ..
